
wheelchair_select_modes_selector.elf:     file format elf32-littlearm

Sections:
Idx Name          Size      VMA       LMA       File off  Algn
  0 .isr_vector   0000010c  08000000  08000000  00010000  2**0
                  CONTENTS, ALLOC, LOAD, READONLY, DATA
  1 .text         00002c54  08000110  08000110  00010110  2**3
                  CONTENTS, ALLOC, LOAD, READONLY, CODE
  2 .rodata       0000014c  08002d64  08002d64  00012d64  2**2
                  CONTENTS, ALLOC, LOAD, READONLY, DATA
  3 .ARM.extab    00000000  08002eb0  08002eb0  0002001c  2**0
                  CONTENTS
  4 .ARM          00000000  08002eb0  08002eb0  0002001c  2**0
                  CONTENTS
  5 .preinit_array 00000000  08002eb0  08002eb0  0002001c  2**0
                  CONTENTS, ALLOC, LOAD, DATA
  6 .init_array   00000004  08002eb0  08002eb0  00012eb0  2**2
                  CONTENTS, ALLOC, LOAD, DATA
  7 .fini_array   00000004  08002eb4  08002eb4  00012eb4  2**2
                  CONTENTS, ALLOC, LOAD, DATA
  8 .data         0000001c  20000000  08002eb8  00020000  2**2
                  CONTENTS, ALLOC, LOAD, DATA
  9 .bss          000000c8  2000001c  08002ed4  0002001c  2**2
                  ALLOC
 10 ._user_heap_stack 00000604  200000e4  08002ed4  000200e4  2**0
                  ALLOC
 11 .ARM.attributes 00000029  00000000  00000000  0002001c  2**0
                  CONTENTS, READONLY
 12 .debug_info   00002753  00000000  00000000  00020045  2**0
                  CONTENTS, READONLY, DEBUGGING, OCTETS
 13 .debug_abbrev 00000a80  00000000  00000000  00022798  2**0
                  CONTENTS, READONLY, DEBUGGING, OCTETS
 14 .debug_aranges 00000388  00000000  00000000  00023218  2**3
                  CONTENTS, READONLY, DEBUGGING, OCTETS
 15 .debug_ranges 000002e0  00000000  00000000  000235a0  2**3
                  CONTENTS, READONLY, DEBUGGING, OCTETS
 16 .debug_macro  0000157b  00000000  00000000  00023880  2**0
                  CONTENTS, READONLY, DEBUGGING, OCTETS
 17 .debug_line   00002b01  00000000  00000000  00024dfb  2**0
                  CONTENTS, READONLY, DEBUGGING, OCTETS
 18 .debug_str    0007d225  00000000  00000000  000278fc  2**0
                  CONTENTS, READONLY, DEBUGGING, OCTETS
 19 .comment      00000053  00000000  00000000  000a4b21  2**0
                  CONTENTS, READONLY
 20 .debug_frame  00000dd8  00000000  00000000  000a4b74  2**2
                  CONTENTS, READONLY, DEBUGGING, OCTETS

Disassembly of section .text:

08000110 <__do_global_dtors_aux>:
 8000110:	b510      	push	{r4, lr}
 8000112:	4c05      	ldr	r4, [pc, #20]	; (8000128 <__do_global_dtors_aux+0x18>)
 8000114:	7823      	ldrb	r3, [r4, #0]
 8000116:	b933      	cbnz	r3, 8000126 <__do_global_dtors_aux+0x16>
 8000118:	4b04      	ldr	r3, [pc, #16]	; (800012c <__do_global_dtors_aux+0x1c>)
 800011a:	b113      	cbz	r3, 8000122 <__do_global_dtors_aux+0x12>
 800011c:	4804      	ldr	r0, [pc, #16]	; (8000130 <__do_global_dtors_aux+0x20>)
 800011e:	f3af 8000 	nop.w
 8000122:	2301      	movs	r3, #1
 8000124:	7023      	strb	r3, [r4, #0]
 8000126:	bd10      	pop	{r4, pc}
 8000128:	2000001c 	.word	0x2000001c
 800012c:	00000000 	.word	0x00000000
 8000130:	08002d4c 	.word	0x08002d4c

08000134 <frame_dummy>:
 8000134:	b508      	push	{r3, lr}
 8000136:	4b03      	ldr	r3, [pc, #12]	; (8000144 <frame_dummy+0x10>)
 8000138:	b11b      	cbz	r3, 8000142 <frame_dummy+0xe>
 800013a:	4903      	ldr	r1, [pc, #12]	; (8000148 <frame_dummy+0x14>)
 800013c:	4803      	ldr	r0, [pc, #12]	; (800014c <frame_dummy+0x18>)
 800013e:	f3af 8000 	nop.w
 8000142:	bd08      	pop	{r3, pc}
 8000144:	00000000 	.word	0x00000000
 8000148:	20000020 	.word	0x20000020
 800014c:	08002d4c 	.word	0x08002d4c

08000150 <__aeabi_fmul>:
 8000150:	f04f 0cff 	mov.w	ip, #255	; 0xff
 8000154:	ea1c 52d0 	ands.w	r2, ip, r0, lsr #23
 8000158:	bf1e      	ittt	ne
 800015a:	ea1c 53d1 	andsne.w	r3, ip, r1, lsr #23
 800015e:	ea92 0f0c 	teqne	r2, ip
 8000162:	ea93 0f0c 	teqne	r3, ip
 8000166:	d06f      	beq.n	8000248 <__aeabi_fmul+0xf8>
 8000168:	441a      	add	r2, r3
 800016a:	ea80 0c01 	eor.w	ip, r0, r1
 800016e:	0240      	lsls	r0, r0, #9
 8000170:	bf18      	it	ne
 8000172:	ea5f 2141 	movsne.w	r1, r1, lsl #9
 8000176:	d01e      	beq.n	80001b6 <__aeabi_fmul+0x66>
 8000178:	f04f 6300 	mov.w	r3, #134217728	; 0x8000000
 800017c:	ea43 1050 	orr.w	r0, r3, r0, lsr #5
 8000180:	ea43 1151 	orr.w	r1, r3, r1, lsr #5
 8000184:	fba0 3101 	umull	r3, r1, r0, r1
 8000188:	f00c 4000 	and.w	r0, ip, #2147483648	; 0x80000000
 800018c:	f5b1 0f00 	cmp.w	r1, #8388608	; 0x800000
 8000190:	bf3e      	ittt	cc
 8000192:	0049      	lslcc	r1, r1, #1
 8000194:	ea41 71d3 	orrcc.w	r1, r1, r3, lsr #31
 8000198:	005b      	lslcc	r3, r3, #1
 800019a:	ea40 0001 	orr.w	r0, r0, r1
 800019e:	f162 027f 	sbc.w	r2, r2, #127	; 0x7f
 80001a2:	2afd      	cmp	r2, #253	; 0xfd
 80001a4:	d81d      	bhi.n	80001e2 <__aeabi_fmul+0x92>
 80001a6:	f1b3 4f00 	cmp.w	r3, #2147483648	; 0x80000000
 80001aa:	eb40 50c2 	adc.w	r0, r0, r2, lsl #23
 80001ae:	bf08      	it	eq
 80001b0:	f020 0001 	biceq.w	r0, r0, #1
 80001b4:	4770      	bx	lr
 80001b6:	f090 0f00 	teq	r0, #0
 80001ba:	f00c 4c00 	and.w	ip, ip, #2147483648	; 0x80000000
 80001be:	bf08      	it	eq
 80001c0:	0249      	lsleq	r1, r1, #9
 80001c2:	ea4c 2050 	orr.w	r0, ip, r0, lsr #9
 80001c6:	ea40 2051 	orr.w	r0, r0, r1, lsr #9
 80001ca:	3a7f      	subs	r2, #127	; 0x7f
 80001cc:	bfc2      	ittt	gt
 80001ce:	f1d2 03ff 	rsbsgt	r3, r2, #255	; 0xff
 80001d2:	ea40 50c2 	orrgt.w	r0, r0, r2, lsl #23
 80001d6:	4770      	bxgt	lr
 80001d8:	f440 0000 	orr.w	r0, r0, #8388608	; 0x800000
 80001dc:	f04f 0300 	mov.w	r3, #0
 80001e0:	3a01      	subs	r2, #1
 80001e2:	dc5d      	bgt.n	80002a0 <__aeabi_fmul+0x150>
 80001e4:	f112 0f19 	cmn.w	r2, #25
 80001e8:	bfdc      	itt	le
 80001ea:	f000 4000 	andle.w	r0, r0, #2147483648	; 0x80000000
 80001ee:	4770      	bxle	lr
 80001f0:	f1c2 0200 	rsb	r2, r2, #0
 80001f4:	0041      	lsls	r1, r0, #1
 80001f6:	fa21 f102 	lsr.w	r1, r1, r2
 80001fa:	f1c2 0220 	rsb	r2, r2, #32
 80001fe:	fa00 fc02 	lsl.w	ip, r0, r2
 8000202:	ea5f 0031 	movs.w	r0, r1, rrx
 8000206:	f140 0000 	adc.w	r0, r0, #0
 800020a:	ea53 034c 	orrs.w	r3, r3, ip, lsl #1
 800020e:	bf08      	it	eq
 8000210:	ea20 70dc 	biceq.w	r0, r0, ip, lsr #31
 8000214:	4770      	bx	lr
 8000216:	f092 0f00 	teq	r2, #0
 800021a:	f000 4c00 	and.w	ip, r0, #2147483648	; 0x80000000
 800021e:	bf02      	ittt	eq
 8000220:	0040      	lsleq	r0, r0, #1
 8000222:	f410 0f00 	tsteq.w	r0, #8388608	; 0x800000
 8000226:	3a01      	subeq	r2, #1
 8000228:	d0f9      	beq.n	800021e <__aeabi_fmul+0xce>
 800022a:	ea40 000c 	orr.w	r0, r0, ip
 800022e:	f093 0f00 	teq	r3, #0
 8000232:	f001 4c00 	and.w	ip, r1, #2147483648	; 0x80000000
 8000236:	bf02      	ittt	eq
 8000238:	0049      	lsleq	r1, r1, #1
 800023a:	f411 0f00 	tsteq.w	r1, #8388608	; 0x800000
 800023e:	3b01      	subeq	r3, #1
 8000240:	d0f9      	beq.n	8000236 <__aeabi_fmul+0xe6>
 8000242:	ea41 010c 	orr.w	r1, r1, ip
 8000246:	e78f      	b.n	8000168 <__aeabi_fmul+0x18>
 8000248:	ea0c 53d1 	and.w	r3, ip, r1, lsr #23
 800024c:	ea92 0f0c 	teq	r2, ip
 8000250:	bf18      	it	ne
 8000252:	ea93 0f0c 	teqne	r3, ip
 8000256:	d00a      	beq.n	800026e <__aeabi_fmul+0x11e>
 8000258:	f030 4c00 	bics.w	ip, r0, #2147483648	; 0x80000000
 800025c:	bf18      	it	ne
 800025e:	f031 4c00 	bicsne.w	ip, r1, #2147483648	; 0x80000000
 8000262:	d1d8      	bne.n	8000216 <__aeabi_fmul+0xc6>
 8000264:	ea80 0001 	eor.w	r0, r0, r1
 8000268:	f000 4000 	and.w	r0, r0, #2147483648	; 0x80000000
 800026c:	4770      	bx	lr
 800026e:	f090 0f00 	teq	r0, #0
 8000272:	bf17      	itett	ne
 8000274:	f090 4f00 	teqne	r0, #2147483648	; 0x80000000
 8000278:	4608      	moveq	r0, r1
 800027a:	f091 0f00 	teqne	r1, #0
 800027e:	f091 4f00 	teqne	r1, #2147483648	; 0x80000000
 8000282:	d014      	beq.n	80002ae <__aeabi_fmul+0x15e>
 8000284:	ea92 0f0c 	teq	r2, ip
 8000288:	d101      	bne.n	800028e <__aeabi_fmul+0x13e>
 800028a:	0242      	lsls	r2, r0, #9
 800028c:	d10f      	bne.n	80002ae <__aeabi_fmul+0x15e>
 800028e:	ea93 0f0c 	teq	r3, ip
 8000292:	d103      	bne.n	800029c <__aeabi_fmul+0x14c>
 8000294:	024b      	lsls	r3, r1, #9
 8000296:	bf18      	it	ne
 8000298:	4608      	movne	r0, r1
 800029a:	d108      	bne.n	80002ae <__aeabi_fmul+0x15e>
 800029c:	ea80 0001 	eor.w	r0, r0, r1
 80002a0:	f000 4000 	and.w	r0, r0, #2147483648	; 0x80000000
 80002a4:	f040 40fe 	orr.w	r0, r0, #2130706432	; 0x7f000000
 80002a8:	f440 0000 	orr.w	r0, r0, #8388608	; 0x800000
 80002ac:	4770      	bx	lr
 80002ae:	f040 40fe 	orr.w	r0, r0, #2130706432	; 0x7f000000
 80002b2:	f440 0040 	orr.w	r0, r0, #12582912	; 0xc00000
 80002b6:	4770      	bx	lr

080002b8 <__aeabi_drsub>:
 80002b8:	f081 4100 	eor.w	r1, r1, #2147483648	; 0x80000000
 80002bc:	e002      	b.n	80002c4 <__adddf3>
 80002be:	bf00      	nop

080002c0 <__aeabi_dsub>:
 80002c0:	f083 4300 	eor.w	r3, r3, #2147483648	; 0x80000000

080002c4 <__adddf3>:
 80002c4:	b530      	push	{r4, r5, lr}
 80002c6:	ea4f 0441 	mov.w	r4, r1, lsl #1
 80002ca:	ea4f 0543 	mov.w	r5, r3, lsl #1
 80002ce:	ea94 0f05 	teq	r4, r5
 80002d2:	bf08      	it	eq
 80002d4:	ea90 0f02 	teqeq	r0, r2
 80002d8:	bf1f      	itttt	ne
 80002da:	ea54 0c00 	orrsne.w	ip, r4, r0
 80002de:	ea55 0c02 	orrsne.w	ip, r5, r2
 80002e2:	ea7f 5c64 	mvnsne.w	ip, r4, asr #21
 80002e6:	ea7f 5c65 	mvnsne.w	ip, r5, asr #21
 80002ea:	f000 80e2 	beq.w	80004b2 <__adddf3+0x1ee>
 80002ee:	ea4f 5454 	mov.w	r4, r4, lsr #21
 80002f2:	ebd4 5555 	rsbs	r5, r4, r5, lsr #21
 80002f6:	bfb8      	it	lt
 80002f8:	426d      	neglt	r5, r5
 80002fa:	dd0c      	ble.n	8000316 <__adddf3+0x52>
 80002fc:	442c      	add	r4, r5
 80002fe:	ea80 0202 	eor.w	r2, r0, r2
 8000302:	ea81 0303 	eor.w	r3, r1, r3
 8000306:	ea82 0000 	eor.w	r0, r2, r0
 800030a:	ea83 0101 	eor.w	r1, r3, r1
 800030e:	ea80 0202 	eor.w	r2, r0, r2
 8000312:	ea81 0303 	eor.w	r3, r1, r3
 8000316:	2d36      	cmp	r5, #54	; 0x36
 8000318:	bf88      	it	hi
 800031a:	bd30      	pophi	{r4, r5, pc}
 800031c:	f011 4f00 	tst.w	r1, #2147483648	; 0x80000000
 8000320:	ea4f 3101 	mov.w	r1, r1, lsl #12
 8000324:	f44f 1c80 	mov.w	ip, #1048576	; 0x100000
 8000328:	ea4c 3111 	orr.w	r1, ip, r1, lsr #12
 800032c:	d002      	beq.n	8000334 <__adddf3+0x70>
 800032e:	4240      	negs	r0, r0
 8000330:	eb61 0141 	sbc.w	r1, r1, r1, lsl #1
 8000334:	f013 4f00 	tst.w	r3, #2147483648	; 0x80000000
 8000338:	ea4f 3303 	mov.w	r3, r3, lsl #12
 800033c:	ea4c 3313 	orr.w	r3, ip, r3, lsr #12
 8000340:	d002      	beq.n	8000348 <__adddf3+0x84>
 8000342:	4252      	negs	r2, r2
 8000344:	eb63 0343 	sbc.w	r3, r3, r3, lsl #1
 8000348:	ea94 0f05 	teq	r4, r5
 800034c:	f000 80a7 	beq.w	800049e <__adddf3+0x1da>
 8000350:	f1a4 0401 	sub.w	r4, r4, #1
 8000354:	f1d5 0e20 	rsbs	lr, r5, #32
 8000358:	db0d      	blt.n	8000376 <__adddf3+0xb2>
 800035a:	fa02 fc0e 	lsl.w	ip, r2, lr
 800035e:	fa22 f205 	lsr.w	r2, r2, r5
 8000362:	1880      	adds	r0, r0, r2
 8000364:	f141 0100 	adc.w	r1, r1, #0
 8000368:	fa03 f20e 	lsl.w	r2, r3, lr
 800036c:	1880      	adds	r0, r0, r2
 800036e:	fa43 f305 	asr.w	r3, r3, r5
 8000372:	4159      	adcs	r1, r3
 8000374:	e00e      	b.n	8000394 <__adddf3+0xd0>
 8000376:	f1a5 0520 	sub.w	r5, r5, #32
 800037a:	f10e 0e20 	add.w	lr, lr, #32
 800037e:	2a01      	cmp	r2, #1
 8000380:	fa03 fc0e 	lsl.w	ip, r3, lr
 8000384:	bf28      	it	cs
 8000386:	f04c 0c02 	orrcs.w	ip, ip, #2
 800038a:	fa43 f305 	asr.w	r3, r3, r5
 800038e:	18c0      	adds	r0, r0, r3
 8000390:	eb51 71e3 	adcs.w	r1, r1, r3, asr #31
 8000394:	f001 4500 	and.w	r5, r1, #2147483648	; 0x80000000
 8000398:	d507      	bpl.n	80003aa <__adddf3+0xe6>
 800039a:	f04f 0e00 	mov.w	lr, #0
 800039e:	f1dc 0c00 	rsbs	ip, ip, #0
 80003a2:	eb7e 0000 	sbcs.w	r0, lr, r0
 80003a6:	eb6e 0101 	sbc.w	r1, lr, r1
 80003aa:	f5b1 1f80 	cmp.w	r1, #1048576	; 0x100000
 80003ae:	d31b      	bcc.n	80003e8 <__adddf3+0x124>
 80003b0:	f5b1 1f00 	cmp.w	r1, #2097152	; 0x200000
 80003b4:	d30c      	bcc.n	80003d0 <__adddf3+0x10c>
 80003b6:	0849      	lsrs	r1, r1, #1
 80003b8:	ea5f 0030 	movs.w	r0, r0, rrx
 80003bc:	ea4f 0c3c 	mov.w	ip, ip, rrx
 80003c0:	f104 0401 	add.w	r4, r4, #1
 80003c4:	ea4f 5244 	mov.w	r2, r4, lsl #21
 80003c8:	f512 0f80 	cmn.w	r2, #4194304	; 0x400000
 80003cc:	f080 809a 	bcs.w	8000504 <__adddf3+0x240>
 80003d0:	f1bc 4f00 	cmp.w	ip, #2147483648	; 0x80000000
 80003d4:	bf08      	it	eq
 80003d6:	ea5f 0c50 	movseq.w	ip, r0, lsr #1
 80003da:	f150 0000 	adcs.w	r0, r0, #0
 80003de:	eb41 5104 	adc.w	r1, r1, r4, lsl #20
 80003e2:	ea41 0105 	orr.w	r1, r1, r5
 80003e6:	bd30      	pop	{r4, r5, pc}
 80003e8:	ea5f 0c4c 	movs.w	ip, ip, lsl #1
 80003ec:	4140      	adcs	r0, r0
 80003ee:	eb41 0101 	adc.w	r1, r1, r1
 80003f2:	3c01      	subs	r4, #1
 80003f4:	bf28      	it	cs
 80003f6:	f5b1 1f80 	cmpcs.w	r1, #1048576	; 0x100000
 80003fa:	d2e9      	bcs.n	80003d0 <__adddf3+0x10c>
 80003fc:	f091 0f00 	teq	r1, #0
 8000400:	bf04      	itt	eq
 8000402:	4601      	moveq	r1, r0
 8000404:	2000      	moveq	r0, #0
 8000406:	fab1 f381 	clz	r3, r1
 800040a:	bf08      	it	eq
 800040c:	3320      	addeq	r3, #32
 800040e:	f1a3 030b 	sub.w	r3, r3, #11
 8000412:	f1b3 0220 	subs.w	r2, r3, #32
 8000416:	da0c      	bge.n	8000432 <__adddf3+0x16e>
 8000418:	320c      	adds	r2, #12
 800041a:	dd08      	ble.n	800042e <__adddf3+0x16a>
 800041c:	f102 0c14 	add.w	ip, r2, #20
 8000420:	f1c2 020c 	rsb	r2, r2, #12
 8000424:	fa01 f00c 	lsl.w	r0, r1, ip
 8000428:	fa21 f102 	lsr.w	r1, r1, r2
 800042c:	e00c      	b.n	8000448 <__adddf3+0x184>
 800042e:	f102 0214 	add.w	r2, r2, #20
 8000432:	bfd8      	it	le
 8000434:	f1c2 0c20 	rsble	ip, r2, #32
 8000438:	fa01 f102 	lsl.w	r1, r1, r2
 800043c:	fa20 fc0c 	lsr.w	ip, r0, ip
 8000440:	bfdc      	itt	le
 8000442:	ea41 010c 	orrle.w	r1, r1, ip
 8000446:	4090      	lslle	r0, r2
 8000448:	1ae4      	subs	r4, r4, r3
 800044a:	bfa2      	ittt	ge
 800044c:	eb01 5104 	addge.w	r1, r1, r4, lsl #20
 8000450:	4329      	orrge	r1, r5
 8000452:	bd30      	popge	{r4, r5, pc}
 8000454:	ea6f 0404 	mvn.w	r4, r4
 8000458:	3c1f      	subs	r4, #31
 800045a:	da1c      	bge.n	8000496 <__adddf3+0x1d2>
 800045c:	340c      	adds	r4, #12
 800045e:	dc0e      	bgt.n	800047e <__adddf3+0x1ba>
 8000460:	f104 0414 	add.w	r4, r4, #20
 8000464:	f1c4 0220 	rsb	r2, r4, #32
 8000468:	fa20 f004 	lsr.w	r0, r0, r4
 800046c:	fa01 f302 	lsl.w	r3, r1, r2
 8000470:	ea40 0003 	orr.w	r0, r0, r3
 8000474:	fa21 f304 	lsr.w	r3, r1, r4
 8000478:	ea45 0103 	orr.w	r1, r5, r3
 800047c:	bd30      	pop	{r4, r5, pc}
 800047e:	f1c4 040c 	rsb	r4, r4, #12
 8000482:	f1c4 0220 	rsb	r2, r4, #32
 8000486:	fa20 f002 	lsr.w	r0, r0, r2
 800048a:	fa01 f304 	lsl.w	r3, r1, r4
 800048e:	ea40 0003 	orr.w	r0, r0, r3
 8000492:	4629      	mov	r1, r5
 8000494:	bd30      	pop	{r4, r5, pc}
 8000496:	fa21 f004 	lsr.w	r0, r1, r4
 800049a:	4629      	mov	r1, r5
 800049c:	bd30      	pop	{r4, r5, pc}
 800049e:	f094 0f00 	teq	r4, #0
 80004a2:	f483 1380 	eor.w	r3, r3, #1048576	; 0x100000
 80004a6:	bf06      	itte	eq
 80004a8:	f481 1180 	eoreq.w	r1, r1, #1048576	; 0x100000
 80004ac:	3401      	addeq	r4, #1
 80004ae:	3d01      	subne	r5, #1
 80004b0:	e74e      	b.n	8000350 <__adddf3+0x8c>
 80004b2:	ea7f 5c64 	mvns.w	ip, r4, asr #21
 80004b6:	bf18      	it	ne
 80004b8:	ea7f 5c65 	mvnsne.w	ip, r5, asr #21
 80004bc:	d029      	beq.n	8000512 <__adddf3+0x24e>
 80004be:	ea94 0f05 	teq	r4, r5
 80004c2:	bf08      	it	eq
 80004c4:	ea90 0f02 	teqeq	r0, r2
 80004c8:	d005      	beq.n	80004d6 <__adddf3+0x212>
 80004ca:	ea54 0c00 	orrs.w	ip, r4, r0
 80004ce:	bf04      	itt	eq
 80004d0:	4619      	moveq	r1, r3
 80004d2:	4610      	moveq	r0, r2
 80004d4:	bd30      	pop	{r4, r5, pc}
 80004d6:	ea91 0f03 	teq	r1, r3
 80004da:	bf1e      	ittt	ne
 80004dc:	2100      	movne	r1, #0
 80004de:	2000      	movne	r0, #0
 80004e0:	bd30      	popne	{r4, r5, pc}
 80004e2:	ea5f 5c54 	movs.w	ip, r4, lsr #21
 80004e6:	d105      	bne.n	80004f4 <__adddf3+0x230>
 80004e8:	0040      	lsls	r0, r0, #1
 80004ea:	4149      	adcs	r1, r1
 80004ec:	bf28      	it	cs
 80004ee:	f041 4100 	orrcs.w	r1, r1, #2147483648	; 0x80000000
 80004f2:	bd30      	pop	{r4, r5, pc}
 80004f4:	f514 0480 	adds.w	r4, r4, #4194304	; 0x400000
 80004f8:	bf3c      	itt	cc
 80004fa:	f501 1180 	addcc.w	r1, r1, #1048576	; 0x100000
 80004fe:	bd30      	popcc	{r4, r5, pc}
 8000500:	f001 4500 	and.w	r5, r1, #2147483648	; 0x80000000
 8000504:	f045 41fe 	orr.w	r1, r5, #2130706432	; 0x7f000000
 8000508:	f441 0170 	orr.w	r1, r1, #15728640	; 0xf00000
 800050c:	f04f 0000 	mov.w	r0, #0
 8000510:	bd30      	pop	{r4, r5, pc}
 8000512:	ea7f 5c64 	mvns.w	ip, r4, asr #21
 8000516:	bf1a      	itte	ne
 8000518:	4619      	movne	r1, r3
 800051a:	4610      	movne	r0, r2
 800051c:	ea7f 5c65 	mvnseq.w	ip, r5, asr #21
 8000520:	bf1c      	itt	ne
 8000522:	460b      	movne	r3, r1
 8000524:	4602      	movne	r2, r0
 8000526:	ea50 3401 	orrs.w	r4, r0, r1, lsl #12
 800052a:	bf06      	itte	eq
 800052c:	ea52 3503 	orrseq.w	r5, r2, r3, lsl #12
 8000530:	ea91 0f03 	teqeq	r1, r3
 8000534:	f441 2100 	orrne.w	r1, r1, #524288	; 0x80000
 8000538:	bd30      	pop	{r4, r5, pc}
 800053a:	bf00      	nop

0800053c <__aeabi_ui2d>:
 800053c:	f090 0f00 	teq	r0, #0
 8000540:	bf04      	itt	eq
 8000542:	2100      	moveq	r1, #0
 8000544:	4770      	bxeq	lr
 8000546:	b530      	push	{r4, r5, lr}
 8000548:	f44f 6480 	mov.w	r4, #1024	; 0x400
 800054c:	f104 0432 	add.w	r4, r4, #50	; 0x32
 8000550:	f04f 0500 	mov.w	r5, #0
 8000554:	f04f 0100 	mov.w	r1, #0
 8000558:	e750      	b.n	80003fc <__adddf3+0x138>
 800055a:	bf00      	nop

0800055c <__aeabi_i2d>:
 800055c:	f090 0f00 	teq	r0, #0
 8000560:	bf04      	itt	eq
 8000562:	2100      	moveq	r1, #0
 8000564:	4770      	bxeq	lr
 8000566:	b530      	push	{r4, r5, lr}
 8000568:	f44f 6480 	mov.w	r4, #1024	; 0x400
 800056c:	f104 0432 	add.w	r4, r4, #50	; 0x32
 8000570:	f010 4500 	ands.w	r5, r0, #2147483648	; 0x80000000
 8000574:	bf48      	it	mi
 8000576:	4240      	negmi	r0, r0
 8000578:	f04f 0100 	mov.w	r1, #0
 800057c:	e73e      	b.n	80003fc <__adddf3+0x138>
 800057e:	bf00      	nop

08000580 <__aeabi_f2d>:
 8000580:	0042      	lsls	r2, r0, #1
 8000582:	ea4f 01e2 	mov.w	r1, r2, asr #3
 8000586:	ea4f 0131 	mov.w	r1, r1, rrx
 800058a:	ea4f 7002 	mov.w	r0, r2, lsl #28
 800058e:	bf1f      	itttt	ne
 8000590:	f012 437f 	andsne.w	r3, r2, #4278190080	; 0xff000000
 8000594:	f093 4f7f 	teqne	r3, #4278190080	; 0xff000000
 8000598:	f081 5160 	eorne.w	r1, r1, #939524096	; 0x38000000
 800059c:	4770      	bxne	lr
 800059e:	f032 427f 	bics.w	r2, r2, #4278190080	; 0xff000000
 80005a2:	bf08      	it	eq
 80005a4:	4770      	bxeq	lr
 80005a6:	f093 4f7f 	teq	r3, #4278190080	; 0xff000000
 80005aa:	bf04      	itt	eq
 80005ac:	f441 2100 	orreq.w	r1, r1, #524288	; 0x80000
 80005b0:	4770      	bxeq	lr
 80005b2:	b530      	push	{r4, r5, lr}
 80005b4:	f44f 7460 	mov.w	r4, #896	; 0x380
 80005b8:	f001 4500 	and.w	r5, r1, #2147483648	; 0x80000000
 80005bc:	f021 4100 	bic.w	r1, r1, #2147483648	; 0x80000000
 80005c0:	e71c      	b.n	80003fc <__adddf3+0x138>
 80005c2:	bf00      	nop

080005c4 <__aeabi_ul2d>:
 80005c4:	ea50 0201 	orrs.w	r2, r0, r1
 80005c8:	bf08      	it	eq
 80005ca:	4770      	bxeq	lr
 80005cc:	b530      	push	{r4, r5, lr}
 80005ce:	f04f 0500 	mov.w	r5, #0
 80005d2:	e00a      	b.n	80005ea <__aeabi_l2d+0x16>

080005d4 <__aeabi_l2d>:
 80005d4:	ea50 0201 	orrs.w	r2, r0, r1
 80005d8:	bf08      	it	eq
 80005da:	4770      	bxeq	lr
 80005dc:	b530      	push	{r4, r5, lr}
 80005de:	f011 4500 	ands.w	r5, r1, #2147483648	; 0x80000000
 80005e2:	d502      	bpl.n	80005ea <__aeabi_l2d+0x16>
 80005e4:	4240      	negs	r0, r0
 80005e6:	eb61 0141 	sbc.w	r1, r1, r1, lsl #1
 80005ea:	f44f 6480 	mov.w	r4, #1024	; 0x400
 80005ee:	f104 0432 	add.w	r4, r4, #50	; 0x32
 80005f2:	ea5f 5c91 	movs.w	ip, r1, lsr #22
 80005f6:	f43f aed8 	beq.w	80003aa <__adddf3+0xe6>
 80005fa:	f04f 0203 	mov.w	r2, #3
 80005fe:	ea5f 0cdc 	movs.w	ip, ip, lsr #3
 8000602:	bf18      	it	ne
 8000604:	3203      	addne	r2, #3
 8000606:	ea5f 0cdc 	movs.w	ip, ip, lsr #3
 800060a:	bf18      	it	ne
 800060c:	3203      	addne	r2, #3
 800060e:	eb02 02dc 	add.w	r2, r2, ip, lsr #3
 8000612:	f1c2 0320 	rsb	r3, r2, #32
 8000616:	fa00 fc03 	lsl.w	ip, r0, r3
 800061a:	fa20 f002 	lsr.w	r0, r0, r2
 800061e:	fa01 fe03 	lsl.w	lr, r1, r3
 8000622:	ea40 000e 	orr.w	r0, r0, lr
 8000626:	fa21 f102 	lsr.w	r1, r1, r2
 800062a:	4414      	add	r4, r2
 800062c:	e6bd      	b.n	80003aa <__adddf3+0xe6>
 800062e:	bf00      	nop

08000630 <__aeabi_dmul>:
 8000630:	b570      	push	{r4, r5, r6, lr}
 8000632:	f04f 0cff 	mov.w	ip, #255	; 0xff
 8000636:	f44c 6ce0 	orr.w	ip, ip, #1792	; 0x700
 800063a:	ea1c 5411 	ands.w	r4, ip, r1, lsr #20
 800063e:	bf1d      	ittte	ne
 8000640:	ea1c 5513 	andsne.w	r5, ip, r3, lsr #20
 8000644:	ea94 0f0c 	teqne	r4, ip
 8000648:	ea95 0f0c 	teqne	r5, ip
 800064c:	f000 f8de 	bleq	800080c <__aeabi_dmul+0x1dc>
 8000650:	442c      	add	r4, r5
 8000652:	ea81 0603 	eor.w	r6, r1, r3
 8000656:	ea21 514c 	bic.w	r1, r1, ip, lsl #21
 800065a:	ea23 534c 	bic.w	r3, r3, ip, lsl #21
 800065e:	ea50 3501 	orrs.w	r5, r0, r1, lsl #12
 8000662:	bf18      	it	ne
 8000664:	ea52 3503 	orrsne.w	r5, r2, r3, lsl #12
 8000668:	f441 1180 	orr.w	r1, r1, #1048576	; 0x100000
 800066c:	f443 1380 	orr.w	r3, r3, #1048576	; 0x100000
 8000670:	d038      	beq.n	80006e4 <__aeabi_dmul+0xb4>
 8000672:	fba0 ce02 	umull	ip, lr, r0, r2
 8000676:	f04f 0500 	mov.w	r5, #0
 800067a:	fbe1 e502 	umlal	lr, r5, r1, r2
 800067e:	f006 4200 	and.w	r2, r6, #2147483648	; 0x80000000
 8000682:	fbe0 e503 	umlal	lr, r5, r0, r3
 8000686:	f04f 0600 	mov.w	r6, #0
 800068a:	fbe1 5603 	umlal	r5, r6, r1, r3
 800068e:	f09c 0f00 	teq	ip, #0
 8000692:	bf18      	it	ne
 8000694:	f04e 0e01 	orrne.w	lr, lr, #1
 8000698:	f1a4 04ff 	sub.w	r4, r4, #255	; 0xff
 800069c:	f5b6 7f00 	cmp.w	r6, #512	; 0x200
 80006a0:	f564 7440 	sbc.w	r4, r4, #768	; 0x300
 80006a4:	d204      	bcs.n	80006b0 <__aeabi_dmul+0x80>
 80006a6:	ea5f 0e4e 	movs.w	lr, lr, lsl #1
 80006aa:	416d      	adcs	r5, r5
 80006ac:	eb46 0606 	adc.w	r6, r6, r6
 80006b0:	ea42 21c6 	orr.w	r1, r2, r6, lsl #11
 80006b4:	ea41 5155 	orr.w	r1, r1, r5, lsr #21
 80006b8:	ea4f 20c5 	mov.w	r0, r5, lsl #11
 80006bc:	ea40 505e 	orr.w	r0, r0, lr, lsr #21
 80006c0:	ea4f 2ece 	mov.w	lr, lr, lsl #11
 80006c4:	f1b4 0cfd 	subs.w	ip, r4, #253	; 0xfd
 80006c8:	bf88      	it	hi
 80006ca:	f5bc 6fe0 	cmphi.w	ip, #1792	; 0x700
 80006ce:	d81e      	bhi.n	800070e <__aeabi_dmul+0xde>
 80006d0:	f1be 4f00 	cmp.w	lr, #2147483648	; 0x80000000
 80006d4:	bf08      	it	eq
 80006d6:	ea5f 0e50 	movseq.w	lr, r0, lsr #1
 80006da:	f150 0000 	adcs.w	r0, r0, #0
 80006de:	eb41 5104 	adc.w	r1, r1, r4, lsl #20
 80006e2:	bd70      	pop	{r4, r5, r6, pc}
 80006e4:	f006 4600 	and.w	r6, r6, #2147483648	; 0x80000000
 80006e8:	ea46 0101 	orr.w	r1, r6, r1
 80006ec:	ea40 0002 	orr.w	r0, r0, r2
 80006f0:	ea81 0103 	eor.w	r1, r1, r3
 80006f4:	ebb4 045c 	subs.w	r4, r4, ip, lsr #1
 80006f8:	bfc2      	ittt	gt
 80006fa:	ebd4 050c 	rsbsgt	r5, r4, ip
 80006fe:	ea41 5104 	orrgt.w	r1, r1, r4, lsl #20
 8000702:	bd70      	popgt	{r4, r5, r6, pc}
 8000704:	f441 1180 	orr.w	r1, r1, #1048576	; 0x100000
 8000708:	f04f 0e00 	mov.w	lr, #0
 800070c:	3c01      	subs	r4, #1
 800070e:	f300 80ab 	bgt.w	8000868 <__aeabi_dmul+0x238>
 8000712:	f114 0f36 	cmn.w	r4, #54	; 0x36
 8000716:	bfde      	ittt	le
 8000718:	2000      	movle	r0, #0
 800071a:	f001 4100 	andle.w	r1, r1, #2147483648	; 0x80000000
 800071e:	bd70      	pople	{r4, r5, r6, pc}
 8000720:	f1c4 0400 	rsb	r4, r4, #0
 8000724:	3c20      	subs	r4, #32
 8000726:	da35      	bge.n	8000794 <__aeabi_dmul+0x164>
 8000728:	340c      	adds	r4, #12
 800072a:	dc1b      	bgt.n	8000764 <__aeabi_dmul+0x134>
 800072c:	f104 0414 	add.w	r4, r4, #20
 8000730:	f1c4 0520 	rsb	r5, r4, #32
 8000734:	fa00 f305 	lsl.w	r3, r0, r5
 8000738:	fa20 f004 	lsr.w	r0, r0, r4
 800073c:	fa01 f205 	lsl.w	r2, r1, r5
 8000740:	ea40 0002 	orr.w	r0, r0, r2
 8000744:	f001 4200 	and.w	r2, r1, #2147483648	; 0x80000000
 8000748:	f021 4100 	bic.w	r1, r1, #2147483648	; 0x80000000
 800074c:	eb10 70d3 	adds.w	r0, r0, r3, lsr #31
 8000750:	fa21 f604 	lsr.w	r6, r1, r4
 8000754:	eb42 0106 	adc.w	r1, r2, r6
 8000758:	ea5e 0e43 	orrs.w	lr, lr, r3, lsl #1
 800075c:	bf08      	it	eq
 800075e:	ea20 70d3 	biceq.w	r0, r0, r3, lsr #31
 8000762:	bd70      	pop	{r4, r5, r6, pc}
 8000764:	f1c4 040c 	rsb	r4, r4, #12
 8000768:	f1c4 0520 	rsb	r5, r4, #32
 800076c:	fa00 f304 	lsl.w	r3, r0, r4
 8000770:	fa20 f005 	lsr.w	r0, r0, r5
 8000774:	fa01 f204 	lsl.w	r2, r1, r4
 8000778:	ea40 0002 	orr.w	r0, r0, r2
 800077c:	f001 4100 	and.w	r1, r1, #2147483648	; 0x80000000
 8000780:	eb10 70d3 	adds.w	r0, r0, r3, lsr #31
 8000784:	f141 0100 	adc.w	r1, r1, #0
 8000788:	ea5e 0e43 	orrs.w	lr, lr, r3, lsl #1
 800078c:	bf08      	it	eq
 800078e:	ea20 70d3 	biceq.w	r0, r0, r3, lsr #31
 8000792:	bd70      	pop	{r4, r5, r6, pc}
 8000794:	f1c4 0520 	rsb	r5, r4, #32
 8000798:	fa00 f205 	lsl.w	r2, r0, r5
 800079c:	ea4e 0e02 	orr.w	lr, lr, r2
 80007a0:	fa20 f304 	lsr.w	r3, r0, r4
 80007a4:	fa01 f205 	lsl.w	r2, r1, r5
 80007a8:	ea43 0302 	orr.w	r3, r3, r2
 80007ac:	fa21 f004 	lsr.w	r0, r1, r4
 80007b0:	f001 4100 	and.w	r1, r1, #2147483648	; 0x80000000
 80007b4:	fa21 f204 	lsr.w	r2, r1, r4
 80007b8:	ea20 0002 	bic.w	r0, r0, r2
 80007bc:	eb00 70d3 	add.w	r0, r0, r3, lsr #31
 80007c0:	ea5e 0e43 	orrs.w	lr, lr, r3, lsl #1
 80007c4:	bf08      	it	eq
 80007c6:	ea20 70d3 	biceq.w	r0, r0, r3, lsr #31
 80007ca:	bd70      	pop	{r4, r5, r6, pc}
 80007cc:	f094 0f00 	teq	r4, #0
 80007d0:	d10f      	bne.n	80007f2 <__aeabi_dmul+0x1c2>
 80007d2:	f001 4600 	and.w	r6, r1, #2147483648	; 0x80000000
 80007d6:	0040      	lsls	r0, r0, #1
 80007d8:	eb41 0101 	adc.w	r1, r1, r1
 80007dc:	f411 1f80 	tst.w	r1, #1048576	; 0x100000
 80007e0:	bf08      	it	eq
 80007e2:	3c01      	subeq	r4, #1
 80007e4:	d0f7      	beq.n	80007d6 <__aeabi_dmul+0x1a6>
 80007e6:	ea41 0106 	orr.w	r1, r1, r6
 80007ea:	f095 0f00 	teq	r5, #0
 80007ee:	bf18      	it	ne
 80007f0:	4770      	bxne	lr
 80007f2:	f003 4600 	and.w	r6, r3, #2147483648	; 0x80000000
 80007f6:	0052      	lsls	r2, r2, #1
 80007f8:	eb43 0303 	adc.w	r3, r3, r3
 80007fc:	f413 1f80 	tst.w	r3, #1048576	; 0x100000
 8000800:	bf08      	it	eq
 8000802:	3d01      	subeq	r5, #1
 8000804:	d0f7      	beq.n	80007f6 <__aeabi_dmul+0x1c6>
 8000806:	ea43 0306 	orr.w	r3, r3, r6
 800080a:	4770      	bx	lr
 800080c:	ea94 0f0c 	teq	r4, ip
 8000810:	ea0c 5513 	and.w	r5, ip, r3, lsr #20
 8000814:	bf18      	it	ne
 8000816:	ea95 0f0c 	teqne	r5, ip
 800081a:	d00c      	beq.n	8000836 <__aeabi_dmul+0x206>
 800081c:	ea50 0641 	orrs.w	r6, r0, r1, lsl #1
 8000820:	bf18      	it	ne
 8000822:	ea52 0643 	orrsne.w	r6, r2, r3, lsl #1
 8000826:	d1d1      	bne.n	80007cc <__aeabi_dmul+0x19c>
 8000828:	ea81 0103 	eor.w	r1, r1, r3
 800082c:	f001 4100 	and.w	r1, r1, #2147483648	; 0x80000000
 8000830:	f04f 0000 	mov.w	r0, #0
 8000834:	bd70      	pop	{r4, r5, r6, pc}
 8000836:	ea50 0641 	orrs.w	r6, r0, r1, lsl #1
 800083a:	bf06      	itte	eq
 800083c:	4610      	moveq	r0, r2
 800083e:	4619      	moveq	r1, r3
 8000840:	ea52 0643 	orrsne.w	r6, r2, r3, lsl #1
 8000844:	d019      	beq.n	800087a <__aeabi_dmul+0x24a>
 8000846:	ea94 0f0c 	teq	r4, ip
 800084a:	d102      	bne.n	8000852 <__aeabi_dmul+0x222>
 800084c:	ea50 3601 	orrs.w	r6, r0, r1, lsl #12
 8000850:	d113      	bne.n	800087a <__aeabi_dmul+0x24a>
 8000852:	ea95 0f0c 	teq	r5, ip
 8000856:	d105      	bne.n	8000864 <__aeabi_dmul+0x234>
 8000858:	ea52 3603 	orrs.w	r6, r2, r3, lsl #12
 800085c:	bf1c      	itt	ne
 800085e:	4610      	movne	r0, r2
 8000860:	4619      	movne	r1, r3
 8000862:	d10a      	bne.n	800087a <__aeabi_dmul+0x24a>
 8000864:	ea81 0103 	eor.w	r1, r1, r3
 8000868:	f001 4100 	and.w	r1, r1, #2147483648	; 0x80000000
 800086c:	f041 41fe 	orr.w	r1, r1, #2130706432	; 0x7f000000
 8000870:	f441 0170 	orr.w	r1, r1, #15728640	; 0xf00000
 8000874:	f04f 0000 	mov.w	r0, #0
 8000878:	bd70      	pop	{r4, r5, r6, pc}
 800087a:	f041 41fe 	orr.w	r1, r1, #2130706432	; 0x7f000000
 800087e:	f441 0178 	orr.w	r1, r1, #16252928	; 0xf80000
 8000882:	bd70      	pop	{r4, r5, r6, pc}

08000884 <__aeabi_ddiv>:
 8000884:	b570      	push	{r4, r5, r6, lr}
 8000886:	f04f 0cff 	mov.w	ip, #255	; 0xff
 800088a:	f44c 6ce0 	orr.w	ip, ip, #1792	; 0x700
 800088e:	ea1c 5411 	ands.w	r4, ip, r1, lsr #20
 8000892:	bf1d      	ittte	ne
 8000894:	ea1c 5513 	andsne.w	r5, ip, r3, lsr #20
 8000898:	ea94 0f0c 	teqne	r4, ip
 800089c:	ea95 0f0c 	teqne	r5, ip
 80008a0:	f000 f8a7 	bleq	80009f2 <__aeabi_ddiv+0x16e>
 80008a4:	eba4 0405 	sub.w	r4, r4, r5
 80008a8:	ea81 0e03 	eor.w	lr, r1, r3
 80008ac:	ea52 3503 	orrs.w	r5, r2, r3, lsl #12
 80008b0:	ea4f 3101 	mov.w	r1, r1, lsl #12
 80008b4:	f000 8088 	beq.w	80009c8 <__aeabi_ddiv+0x144>
 80008b8:	ea4f 3303 	mov.w	r3, r3, lsl #12
 80008bc:	f04f 5580 	mov.w	r5, #268435456	; 0x10000000
 80008c0:	ea45 1313 	orr.w	r3, r5, r3, lsr #4
 80008c4:	ea43 6312 	orr.w	r3, r3, r2, lsr #24
 80008c8:	ea4f 2202 	mov.w	r2, r2, lsl #8
 80008cc:	ea45 1511 	orr.w	r5, r5, r1, lsr #4
 80008d0:	ea45 6510 	orr.w	r5, r5, r0, lsr #24
 80008d4:	ea4f 2600 	mov.w	r6, r0, lsl #8
 80008d8:	f00e 4100 	and.w	r1, lr, #2147483648	; 0x80000000
 80008dc:	429d      	cmp	r5, r3
 80008de:	bf08      	it	eq
 80008e0:	4296      	cmpeq	r6, r2
 80008e2:	f144 04fd 	adc.w	r4, r4, #253	; 0xfd
 80008e6:	f504 7440 	add.w	r4, r4, #768	; 0x300
 80008ea:	d202      	bcs.n	80008f2 <__aeabi_ddiv+0x6e>
 80008ec:	085b      	lsrs	r3, r3, #1
 80008ee:	ea4f 0232 	mov.w	r2, r2, rrx
 80008f2:	1ab6      	subs	r6, r6, r2
 80008f4:	eb65 0503 	sbc.w	r5, r5, r3
 80008f8:	085b      	lsrs	r3, r3, #1
 80008fa:	ea4f 0232 	mov.w	r2, r2, rrx
 80008fe:	f44f 1080 	mov.w	r0, #1048576	; 0x100000
 8000902:	f44f 2c00 	mov.w	ip, #524288	; 0x80000
 8000906:	ebb6 0e02 	subs.w	lr, r6, r2
 800090a:	eb75 0e03 	sbcs.w	lr, r5, r3
 800090e:	bf22      	ittt	cs
 8000910:	1ab6      	subcs	r6, r6, r2
 8000912:	4675      	movcs	r5, lr
 8000914:	ea40 000c 	orrcs.w	r0, r0, ip
 8000918:	085b      	lsrs	r3, r3, #1
 800091a:	ea4f 0232 	mov.w	r2, r2, rrx
 800091e:	ebb6 0e02 	subs.w	lr, r6, r2
 8000922:	eb75 0e03 	sbcs.w	lr, r5, r3
 8000926:	bf22      	ittt	cs
 8000928:	1ab6      	subcs	r6, r6, r2
 800092a:	4675      	movcs	r5, lr
 800092c:	ea40 005c 	orrcs.w	r0, r0, ip, lsr #1
 8000930:	085b      	lsrs	r3, r3, #1
 8000932:	ea4f 0232 	mov.w	r2, r2, rrx
 8000936:	ebb6 0e02 	subs.w	lr, r6, r2
 800093a:	eb75 0e03 	sbcs.w	lr, r5, r3
 800093e:	bf22      	ittt	cs
 8000940:	1ab6      	subcs	r6, r6, r2
 8000942:	4675      	movcs	r5, lr
 8000944:	ea40 009c 	orrcs.w	r0, r0, ip, lsr #2
 8000948:	085b      	lsrs	r3, r3, #1
 800094a:	ea4f 0232 	mov.w	r2, r2, rrx
 800094e:	ebb6 0e02 	subs.w	lr, r6, r2
 8000952:	eb75 0e03 	sbcs.w	lr, r5, r3
 8000956:	bf22      	ittt	cs
 8000958:	1ab6      	subcs	r6, r6, r2
 800095a:	4675      	movcs	r5, lr
 800095c:	ea40 00dc 	orrcs.w	r0, r0, ip, lsr #3
 8000960:	ea55 0e06 	orrs.w	lr, r5, r6
 8000964:	d018      	beq.n	8000998 <__aeabi_ddiv+0x114>
 8000966:	ea4f 1505 	mov.w	r5, r5, lsl #4
 800096a:	ea45 7516 	orr.w	r5, r5, r6, lsr #28
 800096e:	ea4f 1606 	mov.w	r6, r6, lsl #4
 8000972:	ea4f 03c3 	mov.w	r3, r3, lsl #3
 8000976:	ea43 7352 	orr.w	r3, r3, r2, lsr #29
 800097a:	ea4f 02c2 	mov.w	r2, r2, lsl #3
 800097e:	ea5f 1c1c 	movs.w	ip, ip, lsr #4
 8000982:	d1c0      	bne.n	8000906 <__aeabi_ddiv+0x82>
 8000984:	f411 1f80 	tst.w	r1, #1048576	; 0x100000
 8000988:	d10b      	bne.n	80009a2 <__aeabi_ddiv+0x11e>
 800098a:	ea41 0100 	orr.w	r1, r1, r0
 800098e:	f04f 0000 	mov.w	r0, #0
 8000992:	f04f 4c00 	mov.w	ip, #2147483648	; 0x80000000
 8000996:	e7b6      	b.n	8000906 <__aeabi_ddiv+0x82>
 8000998:	f411 1f80 	tst.w	r1, #1048576	; 0x100000
 800099c:	bf04      	itt	eq
 800099e:	4301      	orreq	r1, r0
 80009a0:	2000      	moveq	r0, #0
 80009a2:	f1b4 0cfd 	subs.w	ip, r4, #253	; 0xfd
 80009a6:	bf88      	it	hi
 80009a8:	f5bc 6fe0 	cmphi.w	ip, #1792	; 0x700
 80009ac:	f63f aeaf 	bhi.w	800070e <__aeabi_dmul+0xde>
 80009b0:	ebb5 0c03 	subs.w	ip, r5, r3
 80009b4:	bf04      	itt	eq
 80009b6:	ebb6 0c02 	subseq.w	ip, r6, r2
 80009ba:	ea5f 0c50 	movseq.w	ip, r0, lsr #1
 80009be:	f150 0000 	adcs.w	r0, r0, #0
 80009c2:	eb41 5104 	adc.w	r1, r1, r4, lsl #20
 80009c6:	bd70      	pop	{r4, r5, r6, pc}
 80009c8:	f00e 4e00 	and.w	lr, lr, #2147483648	; 0x80000000
 80009cc:	ea4e 3111 	orr.w	r1, lr, r1, lsr #12
 80009d0:	eb14 045c 	adds.w	r4, r4, ip, lsr #1
 80009d4:	bfc2      	ittt	gt
 80009d6:	ebd4 050c 	rsbsgt	r5, r4, ip
 80009da:	ea41 5104 	orrgt.w	r1, r1, r4, lsl #20
 80009de:	bd70      	popgt	{r4, r5, r6, pc}
 80009e0:	f441 1180 	orr.w	r1, r1, #1048576	; 0x100000
 80009e4:	f04f 0e00 	mov.w	lr, #0
 80009e8:	3c01      	subs	r4, #1
 80009ea:	e690      	b.n	800070e <__aeabi_dmul+0xde>
 80009ec:	ea45 0e06 	orr.w	lr, r5, r6
 80009f0:	e68d      	b.n	800070e <__aeabi_dmul+0xde>
 80009f2:	ea0c 5513 	and.w	r5, ip, r3, lsr #20
 80009f6:	ea94 0f0c 	teq	r4, ip
 80009fa:	bf08      	it	eq
 80009fc:	ea95 0f0c 	teqeq	r5, ip
 8000a00:	f43f af3b 	beq.w	800087a <__aeabi_dmul+0x24a>
 8000a04:	ea94 0f0c 	teq	r4, ip
 8000a08:	d10a      	bne.n	8000a20 <__aeabi_ddiv+0x19c>
 8000a0a:	ea50 3401 	orrs.w	r4, r0, r1, lsl #12
 8000a0e:	f47f af34 	bne.w	800087a <__aeabi_dmul+0x24a>
 8000a12:	ea95 0f0c 	teq	r5, ip
 8000a16:	f47f af25 	bne.w	8000864 <__aeabi_dmul+0x234>
 8000a1a:	4610      	mov	r0, r2
 8000a1c:	4619      	mov	r1, r3
 8000a1e:	e72c      	b.n	800087a <__aeabi_dmul+0x24a>
 8000a20:	ea95 0f0c 	teq	r5, ip
 8000a24:	d106      	bne.n	8000a34 <__aeabi_ddiv+0x1b0>
 8000a26:	ea52 3503 	orrs.w	r5, r2, r3, lsl #12
 8000a2a:	f43f aefd 	beq.w	8000828 <__aeabi_dmul+0x1f8>
 8000a2e:	4610      	mov	r0, r2
 8000a30:	4619      	mov	r1, r3
 8000a32:	e722      	b.n	800087a <__aeabi_dmul+0x24a>
 8000a34:	ea50 0641 	orrs.w	r6, r0, r1, lsl #1
 8000a38:	bf18      	it	ne
 8000a3a:	ea52 0643 	orrsne.w	r6, r2, r3, lsl #1
 8000a3e:	f47f aec5 	bne.w	80007cc <__aeabi_dmul+0x19c>
 8000a42:	ea50 0441 	orrs.w	r4, r0, r1, lsl #1
 8000a46:	f47f af0d 	bne.w	8000864 <__aeabi_dmul+0x234>
 8000a4a:	ea52 0543 	orrs.w	r5, r2, r3, lsl #1
 8000a4e:	f47f aeeb 	bne.w	8000828 <__aeabi_dmul+0x1f8>
 8000a52:	e712      	b.n	800087a <__aeabi_dmul+0x24a>

08000a54 <__aeabi_d2f>:
 8000a54:	ea4f 0241 	mov.w	r2, r1, lsl #1
 8000a58:	f1b2 43e0 	subs.w	r3, r2, #1879048192	; 0x70000000
 8000a5c:	bf24      	itt	cs
 8000a5e:	f5b3 1c00 	subscs.w	ip, r3, #2097152	; 0x200000
 8000a62:	f1dc 5cfe 	rsbscs	ip, ip, #532676608	; 0x1fc00000
 8000a66:	d90d      	bls.n	8000a84 <__aeabi_d2f+0x30>
 8000a68:	f001 4c00 	and.w	ip, r1, #2147483648	; 0x80000000
 8000a6c:	ea4f 02c0 	mov.w	r2, r0, lsl #3
 8000a70:	ea4c 7050 	orr.w	r0, ip, r0, lsr #29
 8000a74:	f1b2 4f00 	cmp.w	r2, #2147483648	; 0x80000000
 8000a78:	eb40 0083 	adc.w	r0, r0, r3, lsl #2
 8000a7c:	bf08      	it	eq
 8000a7e:	f020 0001 	biceq.w	r0, r0, #1
 8000a82:	4770      	bx	lr
 8000a84:	f011 4f80 	tst.w	r1, #1073741824	; 0x40000000
 8000a88:	d121      	bne.n	8000ace <__aeabi_d2f+0x7a>
 8000a8a:	f113 7238 	adds.w	r2, r3, #48234496	; 0x2e00000
 8000a8e:	bfbc      	itt	lt
 8000a90:	f001 4000 	andlt.w	r0, r1, #2147483648	; 0x80000000
 8000a94:	4770      	bxlt	lr
 8000a96:	f441 1180 	orr.w	r1, r1, #1048576	; 0x100000
 8000a9a:	ea4f 5252 	mov.w	r2, r2, lsr #21
 8000a9e:	f1c2 0218 	rsb	r2, r2, #24
 8000aa2:	f1c2 0c20 	rsb	ip, r2, #32
 8000aa6:	fa10 f30c 	lsls.w	r3, r0, ip
 8000aaa:	fa20 f002 	lsr.w	r0, r0, r2
 8000aae:	bf18      	it	ne
 8000ab0:	f040 0001 	orrne.w	r0, r0, #1
 8000ab4:	ea4f 23c1 	mov.w	r3, r1, lsl #11
 8000ab8:	ea4f 23d3 	mov.w	r3, r3, lsr #11
 8000abc:	fa03 fc0c 	lsl.w	ip, r3, ip
 8000ac0:	ea40 000c 	orr.w	r0, r0, ip
 8000ac4:	fa23 f302 	lsr.w	r3, r3, r2
 8000ac8:	ea4f 0343 	mov.w	r3, r3, lsl #1
 8000acc:	e7cc      	b.n	8000a68 <__aeabi_d2f+0x14>
 8000ace:	ea7f 5362 	mvns.w	r3, r2, asr #21
 8000ad2:	d107      	bne.n	8000ae4 <__aeabi_d2f+0x90>
 8000ad4:	ea50 3301 	orrs.w	r3, r0, r1, lsl #12
 8000ad8:	bf1e      	ittt	ne
 8000ada:	f04f 40fe 	movne.w	r0, #2130706432	; 0x7f000000
 8000ade:	f440 0040 	orrne.w	r0, r0, #12582912	; 0xc00000
 8000ae2:	4770      	bxne	lr
 8000ae4:	f001 4000 	and.w	r0, r1, #2147483648	; 0x80000000
 8000ae8:	f040 40fe 	orr.w	r0, r0, #2130706432	; 0x7f000000
 8000aec:	f440 0000 	orr.w	r0, r0, #8388608	; 0x800000
 8000af0:	4770      	bx	lr
 8000af2:	bf00      	nop

08000af4 <__aeabi_frsub>:
 8000af4:	f080 4000 	eor.w	r0, r0, #2147483648	; 0x80000000
 8000af8:	e002      	b.n	8000b00 <__addsf3>
 8000afa:	bf00      	nop

08000afc <__aeabi_fsub>:
 8000afc:	f081 4100 	eor.w	r1, r1, #2147483648	; 0x80000000

08000b00 <__addsf3>:
 8000b00:	0042      	lsls	r2, r0, #1
 8000b02:	bf1f      	itttt	ne
 8000b04:	ea5f 0341 	movsne.w	r3, r1, lsl #1
 8000b08:	ea92 0f03 	teqne	r2, r3
 8000b0c:	ea7f 6c22 	mvnsne.w	ip, r2, asr #24
 8000b10:	ea7f 6c23 	mvnsne.w	ip, r3, asr #24
 8000b14:	d06a      	beq.n	8000bec <__addsf3+0xec>
 8000b16:	ea4f 6212 	mov.w	r2, r2, lsr #24
 8000b1a:	ebd2 6313 	rsbs	r3, r2, r3, lsr #24
 8000b1e:	bfc1      	itttt	gt
 8000b20:	18d2      	addgt	r2, r2, r3
 8000b22:	4041      	eorgt	r1, r0
 8000b24:	4048      	eorgt	r0, r1
 8000b26:	4041      	eorgt	r1, r0
 8000b28:	bfb8      	it	lt
 8000b2a:	425b      	neglt	r3, r3
 8000b2c:	2b19      	cmp	r3, #25
 8000b2e:	bf88      	it	hi
 8000b30:	4770      	bxhi	lr
 8000b32:	f010 4f00 	tst.w	r0, #2147483648	; 0x80000000
 8000b36:	f440 0000 	orr.w	r0, r0, #8388608	; 0x800000
 8000b3a:	f020 407f 	bic.w	r0, r0, #4278190080	; 0xff000000
 8000b3e:	bf18      	it	ne
 8000b40:	4240      	negne	r0, r0
 8000b42:	f011 4f00 	tst.w	r1, #2147483648	; 0x80000000
 8000b46:	f441 0100 	orr.w	r1, r1, #8388608	; 0x800000
 8000b4a:	f021 417f 	bic.w	r1, r1, #4278190080	; 0xff000000
 8000b4e:	bf18      	it	ne
 8000b50:	4249      	negne	r1, r1
 8000b52:	ea92 0f03 	teq	r2, r3
 8000b56:	d03f      	beq.n	8000bd8 <__addsf3+0xd8>
 8000b58:	f1a2 0201 	sub.w	r2, r2, #1
 8000b5c:	fa41 fc03 	asr.w	ip, r1, r3
 8000b60:	eb10 000c 	adds.w	r0, r0, ip
 8000b64:	f1c3 0320 	rsb	r3, r3, #32
 8000b68:	fa01 f103 	lsl.w	r1, r1, r3
 8000b6c:	f000 4300 	and.w	r3, r0, #2147483648	; 0x80000000
 8000b70:	d502      	bpl.n	8000b78 <__addsf3+0x78>
 8000b72:	4249      	negs	r1, r1
 8000b74:	eb60 0040 	sbc.w	r0, r0, r0, lsl #1
 8000b78:	f5b0 0f00 	cmp.w	r0, #8388608	; 0x800000
 8000b7c:	d313      	bcc.n	8000ba6 <__addsf3+0xa6>
 8000b7e:	f1b0 7f80 	cmp.w	r0, #16777216	; 0x1000000
 8000b82:	d306      	bcc.n	8000b92 <__addsf3+0x92>
 8000b84:	0840      	lsrs	r0, r0, #1
 8000b86:	ea4f 0131 	mov.w	r1, r1, rrx
 8000b8a:	f102 0201 	add.w	r2, r2, #1
 8000b8e:	2afe      	cmp	r2, #254	; 0xfe
 8000b90:	d251      	bcs.n	8000c36 <__addsf3+0x136>
 8000b92:	f1b1 4f00 	cmp.w	r1, #2147483648	; 0x80000000
 8000b96:	eb40 50c2 	adc.w	r0, r0, r2, lsl #23
 8000b9a:	bf08      	it	eq
 8000b9c:	f020 0001 	biceq.w	r0, r0, #1
 8000ba0:	ea40 0003 	orr.w	r0, r0, r3
 8000ba4:	4770      	bx	lr
 8000ba6:	0049      	lsls	r1, r1, #1
 8000ba8:	eb40 0000 	adc.w	r0, r0, r0
 8000bac:	3a01      	subs	r2, #1
 8000bae:	bf28      	it	cs
 8000bb0:	f5b0 0f00 	cmpcs.w	r0, #8388608	; 0x800000
 8000bb4:	d2ed      	bcs.n	8000b92 <__addsf3+0x92>
 8000bb6:	fab0 fc80 	clz	ip, r0
 8000bba:	f1ac 0c08 	sub.w	ip, ip, #8
 8000bbe:	ebb2 020c 	subs.w	r2, r2, ip
 8000bc2:	fa00 f00c 	lsl.w	r0, r0, ip
 8000bc6:	bfaa      	itet	ge
 8000bc8:	eb00 50c2 	addge.w	r0, r0, r2, lsl #23
 8000bcc:	4252      	neglt	r2, r2
 8000bce:	4318      	orrge	r0, r3
 8000bd0:	bfbc      	itt	lt
 8000bd2:	40d0      	lsrlt	r0, r2
 8000bd4:	4318      	orrlt	r0, r3
 8000bd6:	4770      	bx	lr
 8000bd8:	f092 0f00 	teq	r2, #0
 8000bdc:	f481 0100 	eor.w	r1, r1, #8388608	; 0x800000
 8000be0:	bf06      	itte	eq
 8000be2:	f480 0000 	eoreq.w	r0, r0, #8388608	; 0x800000
 8000be6:	3201      	addeq	r2, #1
 8000be8:	3b01      	subne	r3, #1
 8000bea:	e7b5      	b.n	8000b58 <__addsf3+0x58>
 8000bec:	ea4f 0341 	mov.w	r3, r1, lsl #1
 8000bf0:	ea7f 6c22 	mvns.w	ip, r2, asr #24
 8000bf4:	bf18      	it	ne
 8000bf6:	ea7f 6c23 	mvnsne.w	ip, r3, asr #24
 8000bfa:	d021      	beq.n	8000c40 <__addsf3+0x140>
 8000bfc:	ea92 0f03 	teq	r2, r3
 8000c00:	d004      	beq.n	8000c0c <__addsf3+0x10c>
 8000c02:	f092 0f00 	teq	r2, #0
 8000c06:	bf08      	it	eq
 8000c08:	4608      	moveq	r0, r1
 8000c0a:	4770      	bx	lr
 8000c0c:	ea90 0f01 	teq	r0, r1
 8000c10:	bf1c      	itt	ne
 8000c12:	2000      	movne	r0, #0
 8000c14:	4770      	bxne	lr
 8000c16:	f012 4f7f 	tst.w	r2, #4278190080	; 0xff000000
 8000c1a:	d104      	bne.n	8000c26 <__addsf3+0x126>
 8000c1c:	0040      	lsls	r0, r0, #1
 8000c1e:	bf28      	it	cs
 8000c20:	f040 4000 	orrcs.w	r0, r0, #2147483648	; 0x80000000
 8000c24:	4770      	bx	lr
 8000c26:	f112 7200 	adds.w	r2, r2, #33554432	; 0x2000000
 8000c2a:	bf3c      	itt	cc
 8000c2c:	f500 0000 	addcc.w	r0, r0, #8388608	; 0x800000
 8000c30:	4770      	bxcc	lr
 8000c32:	f000 4300 	and.w	r3, r0, #2147483648	; 0x80000000
 8000c36:	f043 40fe 	orr.w	r0, r3, #2130706432	; 0x7f000000
 8000c3a:	f440 0000 	orr.w	r0, r0, #8388608	; 0x800000
 8000c3e:	4770      	bx	lr
 8000c40:	ea7f 6222 	mvns.w	r2, r2, asr #24
 8000c44:	bf16      	itet	ne
 8000c46:	4608      	movne	r0, r1
 8000c48:	ea7f 6323 	mvnseq.w	r3, r3, asr #24
 8000c4c:	4601      	movne	r1, r0
 8000c4e:	0242      	lsls	r2, r0, #9
 8000c50:	bf06      	itte	eq
 8000c52:	ea5f 2341 	movseq.w	r3, r1, lsl #9
 8000c56:	ea90 0f01 	teqeq	r0, r1
 8000c5a:	f440 0080 	orrne.w	r0, r0, #4194304	; 0x400000
 8000c5e:	4770      	bx	lr

08000c60 <__aeabi_ui2f>:
 8000c60:	f04f 0300 	mov.w	r3, #0
 8000c64:	e004      	b.n	8000c70 <__aeabi_i2f+0x8>
 8000c66:	bf00      	nop

08000c68 <__aeabi_i2f>:
 8000c68:	f010 4300 	ands.w	r3, r0, #2147483648	; 0x80000000
 8000c6c:	bf48      	it	mi
 8000c6e:	4240      	negmi	r0, r0
 8000c70:	ea5f 0c00 	movs.w	ip, r0
 8000c74:	bf08      	it	eq
 8000c76:	4770      	bxeq	lr
 8000c78:	f043 4396 	orr.w	r3, r3, #1258291200	; 0x4b000000
 8000c7c:	4601      	mov	r1, r0
 8000c7e:	f04f 0000 	mov.w	r0, #0
 8000c82:	e01c      	b.n	8000cbe <__aeabi_l2f+0x2a>

08000c84 <__aeabi_ul2f>:
 8000c84:	ea50 0201 	orrs.w	r2, r0, r1
 8000c88:	bf08      	it	eq
 8000c8a:	4770      	bxeq	lr
 8000c8c:	f04f 0300 	mov.w	r3, #0
 8000c90:	e00a      	b.n	8000ca8 <__aeabi_l2f+0x14>
 8000c92:	bf00      	nop

08000c94 <__aeabi_l2f>:
 8000c94:	ea50 0201 	orrs.w	r2, r0, r1
 8000c98:	bf08      	it	eq
 8000c9a:	4770      	bxeq	lr
 8000c9c:	f011 4300 	ands.w	r3, r1, #2147483648	; 0x80000000
 8000ca0:	d502      	bpl.n	8000ca8 <__aeabi_l2f+0x14>
 8000ca2:	4240      	negs	r0, r0
 8000ca4:	eb61 0141 	sbc.w	r1, r1, r1, lsl #1
 8000ca8:	ea5f 0c01 	movs.w	ip, r1
 8000cac:	bf02      	ittt	eq
 8000cae:	4684      	moveq	ip, r0
 8000cb0:	4601      	moveq	r1, r0
 8000cb2:	2000      	moveq	r0, #0
 8000cb4:	f043 43b6 	orr.w	r3, r3, #1526726656	; 0x5b000000
 8000cb8:	bf08      	it	eq
 8000cba:	f1a3 5380 	subeq.w	r3, r3, #268435456	; 0x10000000
 8000cbe:	f5a3 0300 	sub.w	r3, r3, #8388608	; 0x800000
 8000cc2:	fabc f28c 	clz	r2, ip
 8000cc6:	3a08      	subs	r2, #8
 8000cc8:	eba3 53c2 	sub.w	r3, r3, r2, lsl #23
 8000ccc:	db10      	blt.n	8000cf0 <__aeabi_l2f+0x5c>
 8000cce:	fa01 fc02 	lsl.w	ip, r1, r2
 8000cd2:	4463      	add	r3, ip
 8000cd4:	fa00 fc02 	lsl.w	ip, r0, r2
 8000cd8:	f1c2 0220 	rsb	r2, r2, #32
 8000cdc:	f1bc 4f00 	cmp.w	ip, #2147483648	; 0x80000000
 8000ce0:	fa20 f202 	lsr.w	r2, r0, r2
 8000ce4:	eb43 0002 	adc.w	r0, r3, r2
 8000ce8:	bf08      	it	eq
 8000cea:	f020 0001 	biceq.w	r0, r0, #1
 8000cee:	4770      	bx	lr
 8000cf0:	f102 0220 	add.w	r2, r2, #32
 8000cf4:	fa01 fc02 	lsl.w	ip, r1, r2
 8000cf8:	f1c2 0220 	rsb	r2, r2, #32
 8000cfc:	ea50 004c 	orrs.w	r0, r0, ip, lsl #1
 8000d00:	fa21 f202 	lsr.w	r2, r1, r2
 8000d04:	eb43 0002 	adc.w	r0, r3, r2
 8000d08:	bf08      	it	eq
 8000d0a:	ea20 70dc 	biceq.w	r0, r0, ip, lsr #31
 8000d0e:	4770      	bx	lr

08000d10 <__gesf2>:
 8000d10:	f04f 3cff 	mov.w	ip, #4294967295
 8000d14:	e006      	b.n	8000d24 <__cmpsf2+0x4>
 8000d16:	bf00      	nop

08000d18 <__lesf2>:
 8000d18:	f04f 0c01 	mov.w	ip, #1
 8000d1c:	e002      	b.n	8000d24 <__cmpsf2+0x4>
 8000d1e:	bf00      	nop

08000d20 <__cmpsf2>:
 8000d20:	f04f 0c01 	mov.w	ip, #1
 8000d24:	f84d cd04 	str.w	ip, [sp, #-4]!
 8000d28:	ea4f 0240 	mov.w	r2, r0, lsl #1
 8000d2c:	ea4f 0341 	mov.w	r3, r1, lsl #1
 8000d30:	ea7f 6c22 	mvns.w	ip, r2, asr #24
 8000d34:	bf18      	it	ne
 8000d36:	ea7f 6c23 	mvnsne.w	ip, r3, asr #24
 8000d3a:	d011      	beq.n	8000d60 <__cmpsf2+0x40>
 8000d3c:	b001      	add	sp, #4
 8000d3e:	ea52 0c53 	orrs.w	ip, r2, r3, lsr #1
 8000d42:	bf18      	it	ne
 8000d44:	ea90 0f01 	teqne	r0, r1
 8000d48:	bf58      	it	pl
 8000d4a:	ebb2 0003 	subspl.w	r0, r2, r3
 8000d4e:	bf88      	it	hi
 8000d50:	17c8      	asrhi	r0, r1, #31
 8000d52:	bf38      	it	cc
 8000d54:	ea6f 70e1 	mvncc.w	r0, r1, asr #31
 8000d58:	bf18      	it	ne
 8000d5a:	f040 0001 	orrne.w	r0, r0, #1
 8000d5e:	4770      	bx	lr
 8000d60:	ea7f 6c22 	mvns.w	ip, r2, asr #24
 8000d64:	d102      	bne.n	8000d6c <__cmpsf2+0x4c>
 8000d66:	ea5f 2c40 	movs.w	ip, r0, lsl #9
 8000d6a:	d105      	bne.n	8000d78 <__cmpsf2+0x58>
 8000d6c:	ea7f 6c23 	mvns.w	ip, r3, asr #24
 8000d70:	d1e4      	bne.n	8000d3c <__cmpsf2+0x1c>
 8000d72:	ea5f 2c41 	movs.w	ip, r1, lsl #9
 8000d76:	d0e1      	beq.n	8000d3c <__cmpsf2+0x1c>
 8000d78:	f85d 0b04 	ldr.w	r0, [sp], #4
 8000d7c:	4770      	bx	lr
 8000d7e:	bf00      	nop

08000d80 <__aeabi_cfrcmple>:
 8000d80:	4684      	mov	ip, r0
 8000d82:	4608      	mov	r0, r1
 8000d84:	4661      	mov	r1, ip
 8000d86:	e7ff      	b.n	8000d88 <__aeabi_cfcmpeq>

08000d88 <__aeabi_cfcmpeq>:
 8000d88:	b50f      	push	{r0, r1, r2, r3, lr}
 8000d8a:	f7ff ffc9 	bl	8000d20 <__cmpsf2>
 8000d8e:	2800      	cmp	r0, #0
 8000d90:	bf48      	it	mi
 8000d92:	f110 0f00 	cmnmi.w	r0, #0
 8000d96:	bd0f      	pop	{r0, r1, r2, r3, pc}

08000d98 <__aeabi_fcmpeq>:
 8000d98:	f84d ed08 	str.w	lr, [sp, #-8]!
 8000d9c:	f7ff fff4 	bl	8000d88 <__aeabi_cfcmpeq>
 8000da0:	bf0c      	ite	eq
 8000da2:	2001      	moveq	r0, #1
 8000da4:	2000      	movne	r0, #0
 8000da6:	f85d fb08 	ldr.w	pc, [sp], #8
 8000daa:	bf00      	nop

08000dac <__aeabi_fcmplt>:
 8000dac:	f84d ed08 	str.w	lr, [sp, #-8]!
 8000db0:	f7ff ffea 	bl	8000d88 <__aeabi_cfcmpeq>
 8000db4:	bf34      	ite	cc
 8000db6:	2001      	movcc	r0, #1
 8000db8:	2000      	movcs	r0, #0
 8000dba:	f85d fb08 	ldr.w	pc, [sp], #8
 8000dbe:	bf00      	nop

08000dc0 <__aeabi_fcmple>:
 8000dc0:	f84d ed08 	str.w	lr, [sp, #-8]!
 8000dc4:	f7ff ffe0 	bl	8000d88 <__aeabi_cfcmpeq>
 8000dc8:	bf94      	ite	ls
 8000dca:	2001      	movls	r0, #1
 8000dcc:	2000      	movhi	r0, #0
 8000dce:	f85d fb08 	ldr.w	pc, [sp], #8
 8000dd2:	bf00      	nop

08000dd4 <__aeabi_fcmpge>:
 8000dd4:	f84d ed08 	str.w	lr, [sp, #-8]!
 8000dd8:	f7ff ffd2 	bl	8000d80 <__aeabi_cfrcmple>
 8000ddc:	bf94      	ite	ls
 8000dde:	2001      	movls	r0, #1
 8000de0:	2000      	movhi	r0, #0
 8000de2:	f85d fb08 	ldr.w	pc, [sp], #8
 8000de6:	bf00      	nop

08000de8 <__aeabi_fcmpgt>:
 8000de8:	f84d ed08 	str.w	lr, [sp, #-8]!
 8000dec:	f7ff ffc8 	bl	8000d80 <__aeabi_cfrcmple>
 8000df0:	bf34      	ite	cc
 8000df2:	2001      	movcc	r0, #1
 8000df4:	2000      	movcs	r0, #0
 8000df6:	f85d fb08 	ldr.w	pc, [sp], #8
 8000dfa:	bf00      	nop

08000dfc <__aeabi_f2uiz>:
 8000dfc:	0042      	lsls	r2, r0, #1
 8000dfe:	d20e      	bcs.n	8000e1e <__aeabi_f2uiz+0x22>
 8000e00:	f1b2 4ffe 	cmp.w	r2, #2130706432	; 0x7f000000
 8000e04:	d30b      	bcc.n	8000e1e <__aeabi_f2uiz+0x22>
 8000e06:	f04f 039e 	mov.w	r3, #158	; 0x9e
 8000e0a:	ebb3 6212 	subs.w	r2, r3, r2, lsr #24
 8000e0e:	d409      	bmi.n	8000e24 <__aeabi_f2uiz+0x28>
 8000e10:	ea4f 2300 	mov.w	r3, r0, lsl #8
 8000e14:	f043 4300 	orr.w	r3, r3, #2147483648	; 0x80000000
 8000e18:	fa23 f002 	lsr.w	r0, r3, r2
 8000e1c:	4770      	bx	lr
 8000e1e:	f04f 0000 	mov.w	r0, #0
 8000e22:	4770      	bx	lr
 8000e24:	f112 0f61 	cmn.w	r2, #97	; 0x61
 8000e28:	d101      	bne.n	8000e2e <__aeabi_f2uiz+0x32>
 8000e2a:	0242      	lsls	r2, r0, #9
 8000e2c:	d102      	bne.n	8000e34 <__aeabi_f2uiz+0x38>
 8000e2e:	f04f 30ff 	mov.w	r0, #4294967295
 8000e32:	4770      	bx	lr
 8000e34:	f04f 0000 	mov.w	r0, #0
 8000e38:	4770      	bx	lr
 8000e3a:	bf00      	nop

08000e3c <MADC1_voidInit>:
#include "../Inc/MCAL/ADC/ADC_interface.h"
#include "../Inc/MCAL/STK/STK_interface.h"


void MADC1_voidInit()
{
 8000e3c:	b580      	push	{r7, lr}
 8000e3e:	af00      	add	r7, sp, #0
	MSTK_voidInit();
 8000e40:	f000 fee2 	bl	8001c08 <MSTK_voidInit>
	ADC_1->ADC_CR[0]=0;
 8000e44:	4b10      	ldr	r3, [pc, #64]	; (8000e88 <MADC1_voidInit+0x4c>)
 8000e46:	2200      	movs	r2, #0
 8000e48:	605a      	str	r2, [r3, #4]
	ADC_1->ADC_CR[1]=0;
 8000e4a:	4b0f      	ldr	r3, [pc, #60]	; (8000e88 <MADC1_voidInit+0x4c>)
 8000e4c:	2200      	movs	r2, #0
 8000e4e:	609a      	str	r2, [r3, #8]
	ADC_1->ADC_CR[1]|=1; //ADCON
 8000e50:	4b0d      	ldr	r3, [pc, #52]	; (8000e88 <MADC1_voidInit+0x4c>)
 8000e52:	689b      	ldr	r3, [r3, #8]
 8000e54:	4a0c      	ldr	r2, [pc, #48]	; (8000e88 <MADC1_voidInit+0x4c>)
 8000e56:	f043 0301 	orr.w	r3, r3, #1
 8000e5a:	6093      	str	r3, [r2, #8]
	ADC_1->ADC_SMPR[1]=0;
 8000e5c:	4b0a      	ldr	r3, [pc, #40]	; (8000e88 <MADC1_voidInit+0x4c>)
 8000e5e:	2200      	movs	r2, #0
 8000e60:	611a      	str	r2, [r3, #16]
	ADC_1->ADC_SMPR[1]|=1; //channel 0 (7.5 cycles)
 8000e62:	4b09      	ldr	r3, [pc, #36]	; (8000e88 <MADC1_voidInit+0x4c>)
 8000e64:	691b      	ldr	r3, [r3, #16]
 8000e66:	4a08      	ldr	r2, [pc, #32]	; (8000e88 <MADC1_voidInit+0x4c>)
 8000e68:	f043 0301 	orr.w	r3, r3, #1
 8000e6c:	6113      	str	r3, [r2, #16]
	ADC_1->ADC_SMPR[1]|=(1<<3); //channel 1 (7.5 cycles)
 8000e6e:	4b06      	ldr	r3, [pc, #24]	; (8000e88 <MADC1_voidInit+0x4c>)
 8000e70:	691b      	ldr	r3, [r3, #16]
 8000e72:	4a05      	ldr	r2, [pc, #20]	; (8000e88 <MADC1_voidInit+0x4c>)
 8000e74:	f043 0308 	orr.w	r3, r3, #8
 8000e78:	6113      	str	r3, [r2, #16]
	MSTK_voidSetBusyWait(1000);
 8000e7a:	f44f 707a 	mov.w	r0, #1000	; 0x3e8
 8000e7e:	f000 fecf 	bl	8001c20 <MSTK_voidSetBusyWait>
}
 8000e82:	bf00      	nop
 8000e84:	bd80      	pop	{r7, pc}
 8000e86:	bf00      	nop
 8000e88:	40012400 	.word	0x40012400

08000e8c <MADC1_u16StartConversion_Channel_0>:
u16 MADC1_u16StartConversion_Channel_0()
{
 8000e8c:	b480      	push	{r7}
 8000e8e:	b083      	sub	sp, #12
 8000e90:	af00      	add	r7, sp, #0
	u16 Local_u16ADCValue = 65535;
 8000e92:	f64f 73ff 	movw	r3, #65535	; 0xffff
 8000e96:	80fb      	strh	r3, [r7, #6]
	ADC_1->ADC_SQR[2] = 0;
 8000e98:	4b10      	ldr	r3, [pc, #64]	; (8000edc <MADC1_u16StartConversion_Channel_0+0x50>)
 8000e9a:	2200      	movs	r2, #0
 8000e9c:	635a      	str	r2, [r3, #52]	; 0x34
	ADC_1->ADC_SQR[2] |= 0;
 8000e9e:	4b0f      	ldr	r3, [pc, #60]	; (8000edc <MADC1_u16StartConversion_Channel_0+0x50>)
 8000ea0:	4a0e      	ldr	r2, [pc, #56]	; (8000edc <MADC1_u16StartConversion_Channel_0+0x50>)
 8000ea2:	6b5b      	ldr	r3, [r3, #52]	; 0x34
 8000ea4:	6353      	str	r3, [r2, #52]	; 0x34
	ADC_1->ADC_SR=0;
 8000ea6:	4b0d      	ldr	r3, [pc, #52]	; (8000edc <MADC1_u16StartConversion_Channel_0+0x50>)
 8000ea8:	2200      	movs	r2, #0
 8000eaa:	601a      	str	r2, [r3, #0]
	//enable adc
	SET_BIT((ADC_1->ADC_CR[1]),0);
 8000eac:	4b0b      	ldr	r3, [pc, #44]	; (8000edc <MADC1_u16StartConversion_Channel_0+0x50>)
 8000eae:	689b      	ldr	r3, [r3, #8]
 8000eb0:	4a0a      	ldr	r2, [pc, #40]	; (8000edc <MADC1_u16StartConversion_Channel_0+0x50>)
 8000eb2:	f043 0301 	orr.w	r3, r3, #1
 8000eb6:	6093      	str	r3, [r2, #8]
	while(GET_BIT(ADC_1->ADC_SR,1)==0)
 8000eb8:	e002      	b.n	8000ec0 <MADC1_u16StartConversion_Channel_0+0x34>
	Local_u16ADCValue = (u16)ADC_1->ADC_DR;
 8000eba:	4b08      	ldr	r3, [pc, #32]	; (8000edc <MADC1_u16StartConversion_Channel_0+0x50>)
 8000ebc:	6cdb      	ldr	r3, [r3, #76]	; 0x4c
 8000ebe:	80fb      	strh	r3, [r7, #6]
	while(GET_BIT(ADC_1->ADC_SR,1)==0)
 8000ec0:	4b06      	ldr	r3, [pc, #24]	; (8000edc <MADC1_u16StartConversion_Channel_0+0x50>)
 8000ec2:	681b      	ldr	r3, [r3, #0]
 8000ec4:	085b      	lsrs	r3, r3, #1
 8000ec6:	f003 0301 	and.w	r3, r3, #1
 8000eca:	2b00      	cmp	r3, #0
 8000ecc:	d0f5      	beq.n	8000eba <MADC1_u16StartConversion_Channel_0+0x2e>
	return Local_u16ADCValue;
 8000ece:	88fb      	ldrh	r3, [r7, #6]
}
 8000ed0:	4618      	mov	r0, r3
 8000ed2:	370c      	adds	r7, #12
 8000ed4:	46bd      	mov	sp, r7
 8000ed6:	bc80      	pop	{r7}
 8000ed8:	4770      	bx	lr
 8000eda:	bf00      	nop
 8000edc:	40012400 	.word	0x40012400

08000ee0 <MADC1_u16StartConversion_Channel_1>:
u16 MADC1_u16StartConversion_Channel_1()
{
 8000ee0:	b480      	push	{r7}
 8000ee2:	b083      	sub	sp, #12
 8000ee4:	af00      	add	r7, sp, #0
	u16 Local_u16ADCValue = 65535;
 8000ee6:	f64f 73ff 	movw	r3, #65535	; 0xffff
 8000eea:	80fb      	strh	r3, [r7, #6]
	ADC_1->ADC_SQR[2] = 0;
 8000eec:	4b11      	ldr	r3, [pc, #68]	; (8000f34 <MADC1_u16StartConversion_Channel_1+0x54>)
 8000eee:	2200      	movs	r2, #0
 8000ef0:	635a      	str	r2, [r3, #52]	; 0x34
	ADC_1->ADC_SQR[2] |= 1;
 8000ef2:	4b10      	ldr	r3, [pc, #64]	; (8000f34 <MADC1_u16StartConversion_Channel_1+0x54>)
 8000ef4:	6b5b      	ldr	r3, [r3, #52]	; 0x34
 8000ef6:	4a0f      	ldr	r2, [pc, #60]	; (8000f34 <MADC1_u16StartConversion_Channel_1+0x54>)
 8000ef8:	f043 0301 	orr.w	r3, r3, #1
 8000efc:	6353      	str	r3, [r2, #52]	; 0x34
	ADC_1->ADC_SR=0;
 8000efe:	4b0d      	ldr	r3, [pc, #52]	; (8000f34 <MADC1_u16StartConversion_Channel_1+0x54>)
 8000f00:	2200      	movs	r2, #0
 8000f02:	601a      	str	r2, [r3, #0]
	//enable adc
	SET_BIT((ADC_1->ADC_CR[1]),0);
 8000f04:	4b0b      	ldr	r3, [pc, #44]	; (8000f34 <MADC1_u16StartConversion_Channel_1+0x54>)
 8000f06:	689b      	ldr	r3, [r3, #8]
 8000f08:	4a0a      	ldr	r2, [pc, #40]	; (8000f34 <MADC1_u16StartConversion_Channel_1+0x54>)
 8000f0a:	f043 0301 	orr.w	r3, r3, #1
 8000f0e:	6093      	str	r3, [r2, #8]
	while(GET_BIT(ADC_1->ADC_SR,1)==0)
 8000f10:	e002      	b.n	8000f18 <MADC1_u16StartConversion_Channel_1+0x38>
	Local_u16ADCValue = (u16)ADC_1->ADC_DR;
 8000f12:	4b08      	ldr	r3, [pc, #32]	; (8000f34 <MADC1_u16StartConversion_Channel_1+0x54>)
 8000f14:	6cdb      	ldr	r3, [r3, #76]	; 0x4c
 8000f16:	80fb      	strh	r3, [r7, #6]
	while(GET_BIT(ADC_1->ADC_SR,1)==0)
 8000f18:	4b06      	ldr	r3, [pc, #24]	; (8000f34 <MADC1_u16StartConversion_Channel_1+0x54>)
 8000f1a:	681b      	ldr	r3, [r3, #0]
 8000f1c:	085b      	lsrs	r3, r3, #1
 8000f1e:	f003 0301 	and.w	r3, r3, #1
 8000f22:	2b00      	cmp	r3, #0
 8000f24:	d0f5      	beq.n	8000f12 <MADC1_u16StartConversion_Channel_1+0x32>
	return Local_u16ADCValue;
 8000f26:	88fb      	ldrh	r3, [r7, #6]
}
 8000f28:	4618      	mov	r0, r3
 8000f2a:	370c      	adds	r7, #12
 8000f2c:	46bd      	mov	sp, r7
 8000f2e:	bc80      	pop	{r7}
 8000f30:	4770      	bx	lr
 8000f32:	bf00      	nop
 8000f34:	40012400 	.word	0x40012400

08000f38 <MDIO_voidSetPinDirection>:

#include "../Inc/MCAL/GPIO/GPIO_interface.h"
#include "../Inc/MCAL/GPIO/GPIO_private.h"

void	MDIO_voidSetPinDirection	(u8 Copy_u8PortID ,u8 Copy_u8PinID ,u8 Copy_u8Direction )
{
 8000f38:	b480      	push	{r7}
 8000f3a:	b083      	sub	sp, #12
 8000f3c:	af00      	add	r7, sp, #0
 8000f3e:	4603      	mov	r3, r0
 8000f40:	71fb      	strb	r3, [r7, #7]
 8000f42:	460b      	mov	r3, r1
 8000f44:	71bb      	strb	r3, [r7, #6]
 8000f46:	4613      	mov	r3, r2
 8000f48:	717b      	strb	r3, [r7, #5]
		/*		Range Check			*/
	if(Copy_u8PortID<3 && Copy_u8PinID<16)
 8000f4a:	79fb      	ldrb	r3, [r7, #7]
 8000f4c:	2b02      	cmp	r3, #2
 8000f4e:	f200 80c0 	bhi.w	80010d2 <MDIO_voidSetPinDirection+0x19a>
 8000f52:	79bb      	ldrb	r3, [r7, #6]
 8000f54:	2b0f      	cmp	r3, #15
 8000f56:	f200 80bc 	bhi.w	80010d2 <MDIO_voidSetPinDirection+0x19a>
	{
		switch(Copy_u8PortID)
 8000f5a:	79fb      	ldrb	r3, [r7, #7]
 8000f5c:	2b02      	cmp	r3, #2
 8000f5e:	d07a      	beq.n	8001056 <MDIO_voidSetPinDirection+0x11e>
 8000f60:	2b02      	cmp	r3, #2
 8000f62:	f300 80b6 	bgt.w	80010d2 <MDIO_voidSetPinDirection+0x19a>
 8000f66:	2b00      	cmp	r3, #0
 8000f68:	d002      	beq.n	8000f70 <MDIO_voidSetPinDirection+0x38>
 8000f6a:	2b01      	cmp	r3, #1
 8000f6c:	d03a      	beq.n	8000fe4 <MDIO_voidSetPinDirection+0xac>
				GPIOC->GPIOC_CRH	|=((Copy_u8Direction)	<< (Copy_u8PinID * 4));
			}else{	/*	Return Error */	}		break;
		}
		
	}else{	/*	Return Error		*/	}	
}
 8000f6e:	e0b0      	b.n	80010d2 <MDIO_voidSetPinDirection+0x19a>
			if(Copy_u8PinID <8)
 8000f70:	79bb      	ldrb	r3, [r7, #6]
 8000f72:	2b07      	cmp	r3, #7
 8000f74:	d817      	bhi.n	8000fa6 <MDIO_voidSetPinDirection+0x6e>
				GPIOA->GPIOA_CRL	&=~((0b1111)			<< (Copy_u8PinID * 4));
 8000f76:	4b59      	ldr	r3, [pc, #356]	; (80010dc <MDIO_voidSetPinDirection+0x1a4>)
 8000f78:	681b      	ldr	r3, [r3, #0]
 8000f7a:	79ba      	ldrb	r2, [r7, #6]
 8000f7c:	0092      	lsls	r2, r2, #2
 8000f7e:	210f      	movs	r1, #15
 8000f80:	fa01 f202 	lsl.w	r2, r1, r2
 8000f84:	43d2      	mvns	r2, r2
 8000f86:	4611      	mov	r1, r2
 8000f88:	4a54      	ldr	r2, [pc, #336]	; (80010dc <MDIO_voidSetPinDirection+0x1a4>)
 8000f8a:	400b      	ands	r3, r1
 8000f8c:	6013      	str	r3, [r2, #0]
				GPIOA->GPIOA_CRL	|=((Copy_u8Direction)	<< (Copy_u8PinID * 4));
 8000f8e:	4b53      	ldr	r3, [pc, #332]	; (80010dc <MDIO_voidSetPinDirection+0x1a4>)
 8000f90:	681b      	ldr	r3, [r3, #0]
 8000f92:	7979      	ldrb	r1, [r7, #5]
 8000f94:	79ba      	ldrb	r2, [r7, #6]
 8000f96:	0092      	lsls	r2, r2, #2
 8000f98:	fa01 f202 	lsl.w	r2, r1, r2
 8000f9c:	4611      	mov	r1, r2
 8000f9e:	4a4f      	ldr	r2, [pc, #316]	; (80010dc <MDIO_voidSetPinDirection+0x1a4>)
 8000fa0:	430b      	orrs	r3, r1
 8000fa2:	6013      	str	r3, [r2, #0]
			}else{	/*	Return Error */	}		break;
 8000fa4:	e090      	b.n	80010c8 <MDIO_voidSetPinDirection+0x190>
			else if(Copy_u8PinID <16)
 8000fa6:	79bb      	ldrb	r3, [r7, #6]
 8000fa8:	2b0f      	cmp	r3, #15
 8000faa:	f200 808d 	bhi.w	80010c8 <MDIO_voidSetPinDirection+0x190>
				Copy_u8PinID -= 8;
 8000fae:	79bb      	ldrb	r3, [r7, #6]
 8000fb0:	3b08      	subs	r3, #8
 8000fb2:	71bb      	strb	r3, [r7, #6]
				GPIOA->GPIOA_CRH	&=~((0b1111)			<< (Copy_u8PinID * 4));
 8000fb4:	4b49      	ldr	r3, [pc, #292]	; (80010dc <MDIO_voidSetPinDirection+0x1a4>)
 8000fb6:	685b      	ldr	r3, [r3, #4]
 8000fb8:	79ba      	ldrb	r2, [r7, #6]
 8000fba:	0092      	lsls	r2, r2, #2
 8000fbc:	210f      	movs	r1, #15
 8000fbe:	fa01 f202 	lsl.w	r2, r1, r2
 8000fc2:	43d2      	mvns	r2, r2
 8000fc4:	4611      	mov	r1, r2
 8000fc6:	4a45      	ldr	r2, [pc, #276]	; (80010dc <MDIO_voidSetPinDirection+0x1a4>)
 8000fc8:	400b      	ands	r3, r1
 8000fca:	6053      	str	r3, [r2, #4]
				GPIOA->GPIOA_CRH	|=((Copy_u8Direction)	<< (Copy_u8PinID * 4));
 8000fcc:	4b43      	ldr	r3, [pc, #268]	; (80010dc <MDIO_voidSetPinDirection+0x1a4>)
 8000fce:	685b      	ldr	r3, [r3, #4]
 8000fd0:	7979      	ldrb	r1, [r7, #5]
 8000fd2:	79ba      	ldrb	r2, [r7, #6]
 8000fd4:	0092      	lsls	r2, r2, #2
 8000fd6:	fa01 f202 	lsl.w	r2, r1, r2
 8000fda:	4611      	mov	r1, r2
 8000fdc:	4a3f      	ldr	r2, [pc, #252]	; (80010dc <MDIO_voidSetPinDirection+0x1a4>)
 8000fde:	430b      	orrs	r3, r1
 8000fe0:	6053      	str	r3, [r2, #4]
			}else{	/*	Return Error */	}		break;
 8000fe2:	e071      	b.n	80010c8 <MDIO_voidSetPinDirection+0x190>
			if(Copy_u8PinID <8)
 8000fe4:	79bb      	ldrb	r3, [r7, #6]
 8000fe6:	2b07      	cmp	r3, #7
 8000fe8:	d817      	bhi.n	800101a <MDIO_voidSetPinDirection+0xe2>
				GPIOB->GPIOB_CRL	&=~((0b1111)			<< (Copy_u8PinID * 4));
 8000fea:	4b3d      	ldr	r3, [pc, #244]	; (80010e0 <MDIO_voidSetPinDirection+0x1a8>)
 8000fec:	681b      	ldr	r3, [r3, #0]
 8000fee:	79ba      	ldrb	r2, [r7, #6]
 8000ff0:	0092      	lsls	r2, r2, #2
 8000ff2:	210f      	movs	r1, #15
 8000ff4:	fa01 f202 	lsl.w	r2, r1, r2
 8000ff8:	43d2      	mvns	r2, r2
 8000ffa:	4611      	mov	r1, r2
 8000ffc:	4a38      	ldr	r2, [pc, #224]	; (80010e0 <MDIO_voidSetPinDirection+0x1a8>)
 8000ffe:	400b      	ands	r3, r1
 8001000:	6013      	str	r3, [r2, #0]
				GPIOB->GPIOB_CRL	|=((Copy_u8Direction)	<< (Copy_u8PinID * 4));
 8001002:	4b37      	ldr	r3, [pc, #220]	; (80010e0 <MDIO_voidSetPinDirection+0x1a8>)
 8001004:	681b      	ldr	r3, [r3, #0]
 8001006:	7979      	ldrb	r1, [r7, #5]
 8001008:	79ba      	ldrb	r2, [r7, #6]
 800100a:	0092      	lsls	r2, r2, #2
 800100c:	fa01 f202 	lsl.w	r2, r1, r2
 8001010:	4611      	mov	r1, r2
 8001012:	4a33      	ldr	r2, [pc, #204]	; (80010e0 <MDIO_voidSetPinDirection+0x1a8>)
 8001014:	430b      	orrs	r3, r1
 8001016:	6013      	str	r3, [r2, #0]
			}else{	/*	Return Error */	}		break;
 8001018:	e058      	b.n	80010cc <MDIO_voidSetPinDirection+0x194>
			}else if(Copy_u8PinID <16)
 800101a:	79bb      	ldrb	r3, [r7, #6]
 800101c:	2b0f      	cmp	r3, #15
 800101e:	d855      	bhi.n	80010cc <MDIO_voidSetPinDirection+0x194>
				Copy_u8PinID -= 8;
 8001020:	79bb      	ldrb	r3, [r7, #6]
 8001022:	3b08      	subs	r3, #8
 8001024:	71bb      	strb	r3, [r7, #6]
				GPIOB->GPIOB_CRH	&=~((0b1111)			<< (Copy_u8PinID * 4));
 8001026:	4b2e      	ldr	r3, [pc, #184]	; (80010e0 <MDIO_voidSetPinDirection+0x1a8>)
 8001028:	685b      	ldr	r3, [r3, #4]
 800102a:	79ba      	ldrb	r2, [r7, #6]
 800102c:	0092      	lsls	r2, r2, #2
 800102e:	210f      	movs	r1, #15
 8001030:	fa01 f202 	lsl.w	r2, r1, r2
 8001034:	43d2      	mvns	r2, r2
 8001036:	4611      	mov	r1, r2
 8001038:	4a29      	ldr	r2, [pc, #164]	; (80010e0 <MDIO_voidSetPinDirection+0x1a8>)
 800103a:	400b      	ands	r3, r1
 800103c:	6053      	str	r3, [r2, #4]
				GPIOB->GPIOB_CRH	|=((Copy_u8Direction)	<< (Copy_u8PinID * 4));
 800103e:	4b28      	ldr	r3, [pc, #160]	; (80010e0 <MDIO_voidSetPinDirection+0x1a8>)
 8001040:	685b      	ldr	r3, [r3, #4]
 8001042:	7979      	ldrb	r1, [r7, #5]
 8001044:	79ba      	ldrb	r2, [r7, #6]
 8001046:	0092      	lsls	r2, r2, #2
 8001048:	fa01 f202 	lsl.w	r2, r1, r2
 800104c:	4611      	mov	r1, r2
 800104e:	4a24      	ldr	r2, [pc, #144]	; (80010e0 <MDIO_voidSetPinDirection+0x1a8>)
 8001050:	430b      	orrs	r3, r1
 8001052:	6053      	str	r3, [r2, #4]
			}else{	/*	Return Error */	}		break;
 8001054:	e03a      	b.n	80010cc <MDIO_voidSetPinDirection+0x194>
			if(Copy_u8PinID <8)
 8001056:	79bb      	ldrb	r3, [r7, #6]
 8001058:	2b07      	cmp	r3, #7
 800105a:	d817      	bhi.n	800108c <MDIO_voidSetPinDirection+0x154>
				GPIOC->GPIOC_CRL	&=~((0b1111)			<< (Copy_u8PinID * 4));
 800105c:	4b21      	ldr	r3, [pc, #132]	; (80010e4 <MDIO_voidSetPinDirection+0x1ac>)
 800105e:	681b      	ldr	r3, [r3, #0]
 8001060:	79ba      	ldrb	r2, [r7, #6]
 8001062:	0092      	lsls	r2, r2, #2
 8001064:	210f      	movs	r1, #15
 8001066:	fa01 f202 	lsl.w	r2, r1, r2
 800106a:	43d2      	mvns	r2, r2
 800106c:	4611      	mov	r1, r2
 800106e:	4a1d      	ldr	r2, [pc, #116]	; (80010e4 <MDIO_voidSetPinDirection+0x1ac>)
 8001070:	400b      	ands	r3, r1
 8001072:	6013      	str	r3, [r2, #0]
				GPIOC->GPIOC_CRL	|=((Copy_u8Direction)	<< (Copy_u8PinID * 4));
 8001074:	4b1b      	ldr	r3, [pc, #108]	; (80010e4 <MDIO_voidSetPinDirection+0x1ac>)
 8001076:	681b      	ldr	r3, [r3, #0]
 8001078:	7979      	ldrb	r1, [r7, #5]
 800107a:	79ba      	ldrb	r2, [r7, #6]
 800107c:	0092      	lsls	r2, r2, #2
 800107e:	fa01 f202 	lsl.w	r2, r1, r2
 8001082:	4611      	mov	r1, r2
 8001084:	4a17      	ldr	r2, [pc, #92]	; (80010e4 <MDIO_voidSetPinDirection+0x1ac>)
 8001086:	430b      	orrs	r3, r1
 8001088:	6013      	str	r3, [r2, #0]
			}else{	/*	Return Error */	}		break;
 800108a:	e021      	b.n	80010d0 <MDIO_voidSetPinDirection+0x198>
			}else if(Copy_u8PinID <16)
 800108c:	79bb      	ldrb	r3, [r7, #6]
 800108e:	2b0f      	cmp	r3, #15
 8001090:	d81e      	bhi.n	80010d0 <MDIO_voidSetPinDirection+0x198>
				Copy_u8PinID -= 8;
 8001092:	79bb      	ldrb	r3, [r7, #6]
 8001094:	3b08      	subs	r3, #8
 8001096:	71bb      	strb	r3, [r7, #6]
				GPIOC->GPIOC_CRH	&=~((0b1111)			<< (Copy_u8PinID * 4));
 8001098:	4b12      	ldr	r3, [pc, #72]	; (80010e4 <MDIO_voidSetPinDirection+0x1ac>)
 800109a:	685b      	ldr	r3, [r3, #4]
 800109c:	79ba      	ldrb	r2, [r7, #6]
 800109e:	0092      	lsls	r2, r2, #2
 80010a0:	210f      	movs	r1, #15
 80010a2:	fa01 f202 	lsl.w	r2, r1, r2
 80010a6:	43d2      	mvns	r2, r2
 80010a8:	4611      	mov	r1, r2
 80010aa:	4a0e      	ldr	r2, [pc, #56]	; (80010e4 <MDIO_voidSetPinDirection+0x1ac>)
 80010ac:	400b      	ands	r3, r1
 80010ae:	6053      	str	r3, [r2, #4]
				GPIOC->GPIOC_CRH	|=((Copy_u8Direction)	<< (Copy_u8PinID * 4));
 80010b0:	4b0c      	ldr	r3, [pc, #48]	; (80010e4 <MDIO_voidSetPinDirection+0x1ac>)
 80010b2:	685b      	ldr	r3, [r3, #4]
 80010b4:	7979      	ldrb	r1, [r7, #5]
 80010b6:	79ba      	ldrb	r2, [r7, #6]
 80010b8:	0092      	lsls	r2, r2, #2
 80010ba:	fa01 f202 	lsl.w	r2, r1, r2
 80010be:	4611      	mov	r1, r2
 80010c0:	4a08      	ldr	r2, [pc, #32]	; (80010e4 <MDIO_voidSetPinDirection+0x1ac>)
 80010c2:	430b      	orrs	r3, r1
 80010c4:	6053      	str	r3, [r2, #4]
			}else{	/*	Return Error */	}		break;
 80010c6:	e003      	b.n	80010d0 <MDIO_voidSetPinDirection+0x198>
			}else{	/*	Return Error */	}		break;
 80010c8:	bf00      	nop
 80010ca:	e002      	b.n	80010d2 <MDIO_voidSetPinDirection+0x19a>
			}else{	/*	Return Error */	}		break;
 80010cc:	bf00      	nop
 80010ce:	e000      	b.n	80010d2 <MDIO_voidSetPinDirection+0x19a>
			}else{	/*	Return Error */	}		break;
 80010d0:	bf00      	nop
}
 80010d2:	bf00      	nop
 80010d4:	370c      	adds	r7, #12
 80010d6:	46bd      	mov	sp, r7
 80010d8:	bc80      	pop	{r7}
 80010da:	4770      	bx	lr
 80010dc:	40010800 	.word	0x40010800
 80010e0:	40010c00 	.word	0x40010c00
 80010e4:	40011000 	.word	0x40011000

080010e8 <MDIO_voidSetPinValue>:

//DIO_voidSetPinValue		(GPIO_U8_PORTA ,GPIO_U8_PIN0 ,GPIO_U8_HIGH	);
void	MDIO_voidSetPinValue		(u8 Copy_u8PortID ,u8 Copy_u8PinID ,u8 Copy_u8Value		)
{
 80010e8:	b480      	push	{r7}
 80010ea:	b083      	sub	sp, #12
 80010ec:	af00      	add	r7, sp, #0
 80010ee:	4603      	mov	r3, r0
 80010f0:	71fb      	strb	r3, [r7, #7]
 80010f2:	460b      	mov	r3, r1
 80010f4:	71bb      	strb	r3, [r7, #6]
 80010f6:	4613      	mov	r3, r2
 80010f8:	717b      	strb	r3, [r7, #5]
	/*		Range Check			*/
	if(Copy_u8PortID<3 && Copy_u8PinID<16)
 80010fa:	79fb      	ldrb	r3, [r7, #7]
 80010fc:	2b02      	cmp	r3, #2
 80010fe:	d840      	bhi.n	8001182 <MDIO_voidSetPinValue+0x9a>
 8001100:	79bb      	ldrb	r3, [r7, #6]
 8001102:	2b0f      	cmp	r3, #15
 8001104:	d83d      	bhi.n	8001182 <MDIO_voidSetPinValue+0x9a>
	{
		if(Copy_u8Value == GPIO_U8_HIGH)
 8001106:	797b      	ldrb	r3, [r7, #5]
 8001108:	2b01      	cmp	r3, #1
 800110a:	d11b      	bne.n	8001144 <MDIO_voidSetPinValue+0x5c>
		{
			switch(Copy_u8PortID)
 800110c:	79fb      	ldrb	r3, [r7, #7]
 800110e:	2b02      	cmp	r3, #2
 8001110:	d012      	beq.n	8001138 <MDIO_voidSetPinValue+0x50>
 8001112:	2b02      	cmp	r3, #2
 8001114:	dc35      	bgt.n	8001182 <MDIO_voidSetPinValue+0x9a>
 8001116:	2b00      	cmp	r3, #0
 8001118:	d002      	beq.n	8001120 <MDIO_voidSetPinValue+0x38>
 800111a:	2b01      	cmp	r3, #1
 800111c:	d006      	beq.n	800112c <MDIO_voidSetPinValue+0x44>
			break;
			}	
		}else{	/*	Return Error	*/}
		
	}else{	/*	Return Error		*/	}
}
 800111e:	e030      	b.n	8001182 <MDIO_voidSetPinValue+0x9a>
					GPIOA->GPIOA_BSRR = (1<<Copy_u8PinID);
 8001120:	79bb      	ldrb	r3, [r7, #6]
 8001122:	2201      	movs	r2, #1
 8001124:	409a      	lsls	r2, r3
 8001126:	4b19      	ldr	r3, [pc, #100]	; (800118c <MDIO_voidSetPinValue+0xa4>)
 8001128:	611a      	str	r2, [r3, #16]
				break;
 800112a:	e02a      	b.n	8001182 <MDIO_voidSetPinValue+0x9a>
					GPIOB->GPIOB_BSRR = (1<<Copy_u8PinID);
 800112c:	79bb      	ldrb	r3, [r7, #6]
 800112e:	2201      	movs	r2, #1
 8001130:	409a      	lsls	r2, r3
 8001132:	4b17      	ldr	r3, [pc, #92]	; (8001190 <MDIO_voidSetPinValue+0xa8>)
 8001134:	611a      	str	r2, [r3, #16]
				break;
 8001136:	e024      	b.n	8001182 <MDIO_voidSetPinValue+0x9a>
					GPIOC->GPIOC_BSRR = (1<<Copy_u8PinID);
 8001138:	79bb      	ldrb	r3, [r7, #6]
 800113a:	2201      	movs	r2, #1
 800113c:	409a      	lsls	r2, r3
 800113e:	4b15      	ldr	r3, [pc, #84]	; (8001194 <MDIO_voidSetPinValue+0xac>)
 8001140:	611a      	str	r2, [r3, #16]
				break;
 8001142:	e01e      	b.n	8001182 <MDIO_voidSetPinValue+0x9a>
		}else if (Copy_u8Value == GPIO_U8_LOW)
 8001144:	797b      	ldrb	r3, [r7, #5]
 8001146:	2b00      	cmp	r3, #0
 8001148:	d11b      	bne.n	8001182 <MDIO_voidSetPinValue+0x9a>
			switch(Copy_u8PortID)
 800114a:	79fb      	ldrb	r3, [r7, #7]
 800114c:	2b02      	cmp	r3, #2
 800114e:	d012      	beq.n	8001176 <MDIO_voidSetPinValue+0x8e>
 8001150:	2b02      	cmp	r3, #2
 8001152:	dc16      	bgt.n	8001182 <MDIO_voidSetPinValue+0x9a>
 8001154:	2b00      	cmp	r3, #0
 8001156:	d002      	beq.n	800115e <MDIO_voidSetPinValue+0x76>
 8001158:	2b01      	cmp	r3, #1
 800115a:	d006      	beq.n	800116a <MDIO_voidSetPinValue+0x82>
}
 800115c:	e011      	b.n	8001182 <MDIO_voidSetPinValue+0x9a>
				GPIOA->GPIOA_BRR = (1<<Copy_u8PinID);
 800115e:	79bb      	ldrb	r3, [r7, #6]
 8001160:	2201      	movs	r2, #1
 8001162:	409a      	lsls	r2, r3
 8001164:	4b09      	ldr	r3, [pc, #36]	; (800118c <MDIO_voidSetPinValue+0xa4>)
 8001166:	615a      	str	r2, [r3, #20]
			break;
 8001168:	e00b      	b.n	8001182 <MDIO_voidSetPinValue+0x9a>
				GPIOB->GPIOB_BRR = (1<<Copy_u8PinID);
 800116a:	79bb      	ldrb	r3, [r7, #6]
 800116c:	2201      	movs	r2, #1
 800116e:	409a      	lsls	r2, r3
 8001170:	4b07      	ldr	r3, [pc, #28]	; (8001190 <MDIO_voidSetPinValue+0xa8>)
 8001172:	615a      	str	r2, [r3, #20]
			break;
 8001174:	e005      	b.n	8001182 <MDIO_voidSetPinValue+0x9a>
				GPIOC->GPIOC_BRR = (1<<Copy_u8PinID);
 8001176:	79bb      	ldrb	r3, [r7, #6]
 8001178:	2201      	movs	r2, #1
 800117a:	409a      	lsls	r2, r3
 800117c:	4b05      	ldr	r3, [pc, #20]	; (8001194 <MDIO_voidSetPinValue+0xac>)
 800117e:	615a      	str	r2, [r3, #20]
			break;
 8001180:	bf00      	nop
}
 8001182:	bf00      	nop
 8001184:	370c      	adds	r7, #12
 8001186:	46bd      	mov	sp, r7
 8001188:	bc80      	pop	{r7}
 800118a:	4770      	bx	lr
 800118c:	40010800 	.word	0x40010800
 8001190:	40010c00 	.word	0x40010c00
 8001194:	40011000 	.word	0x40011000

08001198 <MDIO_u8GetPinValue>:
u8		MDIO_u8GetPinValue		(u8 Copy_u8PortID ,u8 Copy_u8PinID )
{
 8001198:	b480      	push	{r7}
 800119a:	b085      	sub	sp, #20
 800119c:	af00      	add	r7, sp, #0
 800119e:	4603      	mov	r3, r0
 80011a0:	460a      	mov	r2, r1
 80011a2:	71fb      	strb	r3, [r7, #7]
 80011a4:	4613      	mov	r3, r2
 80011a6:	71bb      	strb	r3, [r7, #6]
	u8	Local_u8Value	= 0x55 ;
 80011a8:	2355      	movs	r3, #85	; 0x55
 80011aa:	73fb      	strb	r3, [r7, #15]
	/*		Range Check			*/
	if(Copy_u8PortID<3 && Copy_u8PinID<16)
 80011ac:	79fb      	ldrb	r3, [r7, #7]
 80011ae:	2b02      	cmp	r3, #2
 80011b0:	d82a      	bhi.n	8001208 <MDIO_u8GetPinValue+0x70>
 80011b2:	79bb      	ldrb	r3, [r7, #6]
 80011b4:	2b0f      	cmp	r3, #15
 80011b6:	d827      	bhi.n	8001208 <MDIO_u8GetPinValue+0x70>
	{
		switch(Copy_u8PortID)
 80011b8:	79fb      	ldrb	r3, [r7, #7]
 80011ba:	2b02      	cmp	r3, #2
 80011bc:	d01a      	beq.n	80011f4 <MDIO_u8GetPinValue+0x5c>
 80011be:	2b02      	cmp	r3, #2
 80011c0:	dc22      	bgt.n	8001208 <MDIO_u8GetPinValue+0x70>
 80011c2:	2b00      	cmp	r3, #0
 80011c4:	d002      	beq.n	80011cc <MDIO_u8GetPinValue+0x34>
 80011c6:	2b01      	cmp	r3, #1
 80011c8:	d00a      	beq.n	80011e0 <MDIO_u8GetPinValue+0x48>
 80011ca:	e01d      	b.n	8001208 <MDIO_u8GetPinValue+0x70>
		{
			case	GPIO_U8_PORTA :	Local_u8Value = GET_BIT(GPIOA->GPIOA_IDR,Copy_u8PinID);	break;
 80011cc:	4b11      	ldr	r3, [pc, #68]	; (8001214 <MDIO_u8GetPinValue+0x7c>)
 80011ce:	689a      	ldr	r2, [r3, #8]
 80011d0:	79bb      	ldrb	r3, [r7, #6]
 80011d2:	fa22 f303 	lsr.w	r3, r2, r3
 80011d6:	b2db      	uxtb	r3, r3
 80011d8:	f003 0301 	and.w	r3, r3, #1
 80011dc:	73fb      	strb	r3, [r7, #15]
 80011de:	e013      	b.n	8001208 <MDIO_u8GetPinValue+0x70>
			case	GPIO_U8_PORTB :	Local_u8Value = GET_BIT(GPIOB->GPIOB_IDR,Copy_u8PinID);	break;
 80011e0:	4b0d      	ldr	r3, [pc, #52]	; (8001218 <MDIO_u8GetPinValue+0x80>)
 80011e2:	689a      	ldr	r2, [r3, #8]
 80011e4:	79bb      	ldrb	r3, [r7, #6]
 80011e6:	fa22 f303 	lsr.w	r3, r2, r3
 80011ea:	b2db      	uxtb	r3, r3
 80011ec:	f003 0301 	and.w	r3, r3, #1
 80011f0:	73fb      	strb	r3, [r7, #15]
 80011f2:	e009      	b.n	8001208 <MDIO_u8GetPinValue+0x70>
			case	GPIO_U8_PORTC :	Local_u8Value = GET_BIT(GPIOC->GPIOC_IDR,Copy_u8PinID);	break;
 80011f4:	4b09      	ldr	r3, [pc, #36]	; (800121c <MDIO_u8GetPinValue+0x84>)
 80011f6:	689a      	ldr	r2, [r3, #8]
 80011f8:	79bb      	ldrb	r3, [r7, #6]
 80011fa:	fa22 f303 	lsr.w	r3, r2, r3
 80011fe:	b2db      	uxtb	r3, r3
 8001200:	f003 0301 	and.w	r3, r3, #1
 8001204:	73fb      	strb	r3, [r7, #15]
 8001206:	bf00      	nop
		}		
	}else{	/*	Return Error		*/	}	
	return Local_u8Value ;
 8001208:	7bfb      	ldrb	r3, [r7, #15]
}
 800120a:	4618      	mov	r0, r3
 800120c:	3714      	adds	r7, #20
 800120e:	46bd      	mov	sp, r7
 8001210:	bc80      	pop	{r7}
 8001212:	4770      	bx	lr
 8001214:	40010800 	.word	0x40010800
 8001218:	40010c00 	.word	0x40010c00
 800121c:	40011000 	.word	0x40011000

08001220 <MNVIC_voidInit>:
#include	"../Inc/MCAL/NVIC/NVIC_private.h"
#include	"../Inc/MCAL/NVIC/NVIC_config.h"
#include	"../Inc/MCAL/NVIC/NVIC_interface.h"

void	MNVIC_voidInit				(void)
{
 8001220:	b480      	push	{r7}
 8001222:	af00      	add	r7, sp, #0
	#ifndef	SCB_AIRCR
		#define	SCB_AIRCR		*((volatile u32 *)(0xE000ED00 + 0x0C))
	#endif
	SCB_AIRCR = MNVIC_GRP_SUB;
 8001224:	4b03      	ldr	r3, [pc, #12]	; (8001234 <MNVIC_voidInit+0x14>)
 8001226:	4a04      	ldr	r2, [pc, #16]	; (8001238 <MNVIC_voidInit+0x18>)
 8001228:	601a      	str	r2, [r3, #0]
}
 800122a:	bf00      	nop
 800122c:	46bd      	mov	sp, r7
 800122e:	bc80      	pop	{r7}
 8001230:	4770      	bx	lr
 8001232:	bf00      	nop
 8001234:	e000ed0c 	.word	0xe000ed0c
 8001238:	05fa0500 	.word	0x05fa0500

0800123c <MNVIC_voidEnableInterrupt>:
void	MNVIC_voidEnableInterrupt	(u8 Copy_u8IntNum) //55
{
 800123c:	b480      	push	{r7}
 800123e:	b083      	sub	sp, #12
 8001240:	af00      	add	r7, sp, #0
 8001242:	4603      	mov	r3, r0
 8001244:	71fb      	strb	r3, [r7, #7]
	/*		Ranage	Check 		*/
	if(Copy_u8IntNum < 32)
 8001246:	79fb      	ldrb	r3, [r7, #7]
 8001248:	2b1f      	cmp	r3, #31
 800124a:	d805      	bhi.n	8001258 <MNVIC_voidEnableInterrupt+0x1c>
	{
		NVIC_ISER0 = (1<<Copy_u8IntNum);
 800124c:	79fb      	ldrb	r3, [r7, #7]
 800124e:	2201      	movs	r2, #1
 8001250:	409a      	lsls	r2, r3
 8001252:	4b0f      	ldr	r3, [pc, #60]	; (8001290 <MNVIC_voidEnableInterrupt+0x54>)
 8001254:	601a      	str	r2, [r3, #0]
	}else if(Copy_u8IntNum < 86)
	{
		Copy_u8IntNum -= 64 ;
		NVIC_ISER2 = (1<<Copy_u8IntNum);
	}else{		/*	return Error 			*/}
}
 8001256:	e016      	b.n	8001286 <MNVIC_voidEnableInterrupt+0x4a>
	}else if(Copy_u8IntNum < 64)
 8001258:	79fb      	ldrb	r3, [r7, #7]
 800125a:	2b3f      	cmp	r3, #63	; 0x3f
 800125c:	d808      	bhi.n	8001270 <MNVIC_voidEnableInterrupt+0x34>
		Copy_u8IntNum -= 32 ;
 800125e:	79fb      	ldrb	r3, [r7, #7]
 8001260:	3b20      	subs	r3, #32
 8001262:	71fb      	strb	r3, [r7, #7]
		NVIC_ISER1 = (1<<Copy_u8IntNum);
 8001264:	79fb      	ldrb	r3, [r7, #7]
 8001266:	2201      	movs	r2, #1
 8001268:	409a      	lsls	r2, r3
 800126a:	4b0a      	ldr	r3, [pc, #40]	; (8001294 <MNVIC_voidEnableInterrupt+0x58>)
 800126c:	601a      	str	r2, [r3, #0]
}
 800126e:	e00a      	b.n	8001286 <MNVIC_voidEnableInterrupt+0x4a>
	}else if(Copy_u8IntNum < 86)
 8001270:	79fb      	ldrb	r3, [r7, #7]
 8001272:	2b55      	cmp	r3, #85	; 0x55
 8001274:	d807      	bhi.n	8001286 <MNVIC_voidEnableInterrupt+0x4a>
		Copy_u8IntNum -= 64 ;
 8001276:	79fb      	ldrb	r3, [r7, #7]
 8001278:	3b40      	subs	r3, #64	; 0x40
 800127a:	71fb      	strb	r3, [r7, #7]
		NVIC_ISER2 = (1<<Copy_u8IntNum);
 800127c:	79fb      	ldrb	r3, [r7, #7]
 800127e:	2201      	movs	r2, #1
 8001280:	409a      	lsls	r2, r3
 8001282:	4b05      	ldr	r3, [pc, #20]	; (8001298 <MNVIC_voidEnableInterrupt+0x5c>)
 8001284:	601a      	str	r2, [r3, #0]
}
 8001286:	bf00      	nop
 8001288:	370c      	adds	r7, #12
 800128a:	46bd      	mov	sp, r7
 800128c:	bc80      	pop	{r7}
 800128e:	4770      	bx	lr
 8001290:	e000e100 	.word	0xe000e100
 8001294:	e000e104 	.word	0xe000e104
 8001298:	e000e108 	.word	0xe000e108

0800129c <MPWM_voidInit>:
#include "../Inc/MCAL/PWM/PWM_private.h"
#include "../Inc/MCAL/PWM/PWM_interface.h"


void MPWM_voidInit()
{
 800129c:	b480      	push	{r7}
 800129e:	af00      	add	r7, sp, #0
	TIM_3->TIMx_CCER=0;
 80012a0:	4b18      	ldr	r3, [pc, #96]	; (8001304 <MPWM_voidInit+0x68>)
 80012a2:	2200      	movs	r2, #0
 80012a4:	621a      	str	r2, [r3, #32]
	SET_BIT(TIM_3->TIMx_CCER,0); //enable output of channel 0
 80012a6:	4b17      	ldr	r3, [pc, #92]	; (8001304 <MPWM_voidInit+0x68>)
 80012a8:	6a1b      	ldr	r3, [r3, #32]
 80012aa:	4a16      	ldr	r2, [pc, #88]	; (8001304 <MPWM_voidInit+0x68>)
 80012ac:	f043 0301 	orr.w	r3, r3, #1
 80012b0:	6213      	str	r3, [r2, #32]
	SET_BIT(TIM_3->TIMx_CCER,4); //enable output of channel 1
 80012b2:	4b14      	ldr	r3, [pc, #80]	; (8001304 <MPWM_voidInit+0x68>)
 80012b4:	6a1b      	ldr	r3, [r3, #32]
 80012b6:	4a13      	ldr	r2, [pc, #76]	; (8001304 <MPWM_voidInit+0x68>)
 80012b8:	f043 0310 	orr.w	r3, r3, #16
 80012bc:	6213      	str	r3, [r2, #32]
	TIM_3->TIMx_CCMR1=0x6868; //channel 0 and channel 1 pwm mode 1 and enable output compare preload
 80012be:	4b11      	ldr	r3, [pc, #68]	; (8001304 <MPWM_voidInit+0x68>)
 80012c0:	f646 0268 	movw	r2, #26728	; 0x6868
 80012c4:	619a      	str	r2, [r3, #24]
	TIM_3->TIMx_CR1=0x0080; //upcounting auto reload
 80012c6:	4b0f      	ldr	r3, [pc, #60]	; (8001304 <MPWM_voidInit+0x68>)
 80012c8:	2280      	movs	r2, #128	; 0x80
 80012ca:	601a      	str	r2, [r3, #0]
	TIM_3->TIMx_PSC=8-1; //prescaler
 80012cc:	4b0d      	ldr	r3, [pc, #52]	; (8001304 <MPWM_voidInit+0x68>)
 80012ce:	2207      	movs	r2, #7
 80012d0:	629a      	str	r2, [r3, #40]	; 0x28
	TIM_3->TIMx_ARR=2000-1; //max value of counter (reload)
 80012d2:	4b0c      	ldr	r3, [pc, #48]	; (8001304 <MPWM_voidInit+0x68>)
 80012d4:	f240 72cf 	movw	r2, #1999	; 0x7cf
 80012d8:	62da      	str	r2, [r3, #44]	; 0x2c
	TIM_3->TIMx_CCR1=1000-1; //compare value for pwm
 80012da:	4b0a      	ldr	r3, [pc, #40]	; (8001304 <MPWM_voidInit+0x68>)
 80012dc:	f240 32e7 	movw	r2, #999	; 0x3e7
 80012e0:	635a      	str	r2, [r3, #52]	; 0x34
	TIM_3->TIMx_CCR2=1000-1; //compare value for pwm
 80012e2:	4b08      	ldr	r3, [pc, #32]	; (8001304 <MPWM_voidInit+0x68>)
 80012e4:	f240 32e7 	movw	r2, #999	; 0x3e7
 80012e8:	639a      	str	r2, [r3, #56]	; 0x38
	TIM_3->TIMx_EGR=1; //generate update
 80012ea:	4b06      	ldr	r3, [pc, #24]	; (8001304 <MPWM_voidInit+0x68>)
 80012ec:	2201      	movs	r2, #1
 80012ee:	615a      	str	r2, [r3, #20]
	SET_BIT(TIM_3->TIMx_CR1,0); //enable timer
 80012f0:	4b04      	ldr	r3, [pc, #16]	; (8001304 <MPWM_voidInit+0x68>)
 80012f2:	681b      	ldr	r3, [r3, #0]
 80012f4:	4a03      	ldr	r2, [pc, #12]	; (8001304 <MPWM_voidInit+0x68>)
 80012f6:	f043 0301 	orr.w	r3, r3, #1
 80012fa:	6013      	str	r3, [r2, #0]
}
 80012fc:	bf00      	nop
 80012fe:	46bd      	mov	sp, r7
 8001300:	bc80      	pop	{r7}
 8001302:	4770      	bx	lr
 8001304:	40000400 	.word	0x40000400

08001308 <MPWM_voidChannel_1_SetValue>:
void MPWM_voidChannel_1_SetValue(u16 Copy_u16PWM_Value)
{
 8001308:	b480      	push	{r7}
 800130a:	b083      	sub	sp, #12
 800130c:	af00      	add	r7, sp, #0
 800130e:	4603      	mov	r3, r0
 8001310:	80fb      	strh	r3, [r7, #6]
	TIM_3->TIMx_CCR1=Copy_u16PWM_Value;
 8001312:	4a04      	ldr	r2, [pc, #16]	; (8001324 <MPWM_voidChannel_1_SetValue+0x1c>)
 8001314:	88fb      	ldrh	r3, [r7, #6]
 8001316:	6353      	str	r3, [r2, #52]	; 0x34
}
 8001318:	bf00      	nop
 800131a:	370c      	adds	r7, #12
 800131c:	46bd      	mov	sp, r7
 800131e:	bc80      	pop	{r7}
 8001320:	4770      	bx	lr
 8001322:	bf00      	nop
 8001324:	40000400 	.word	0x40000400

08001328 <MPWM_voidChannel_2_SetValue>:
void MPWM_voidChannel_2_SetValue(u16 Copy_u16PWM_Value)
{
 8001328:	b480      	push	{r7}
 800132a:	b083      	sub	sp, #12
 800132c:	af00      	add	r7, sp, #0
 800132e:	4603      	mov	r3, r0
 8001330:	80fb      	strh	r3, [r7, #6]
	TIM_3->TIMx_CCR2=Copy_u16PWM_Value;
 8001332:	4a04      	ldr	r2, [pc, #16]	; (8001344 <MPWM_voidChannel_2_SetValue+0x1c>)
 8001334:	88fb      	ldrh	r3, [r7, #6]
 8001336:	6393      	str	r3, [r2, #56]	; 0x38
}
 8001338:	bf00      	nop
 800133a:	370c      	adds	r7, #12
 800133c:	46bd      	mov	sp, r7
 800133e:	bc80      	pop	{r7}
 8001340:	4770      	bx	lr
 8001342:	bf00      	nop
 8001344:	40000400 	.word	0x40000400

08001348 <MRCC_voidInit>:
#include "../Inc/MCAL/RCC/RCC_int.h"
#include "../Inc/MCAL/RCC/RCC_priv.h"
#include "../Inc/MCAL/RCC/RCC_config.h"

void MRCC_voidInit()
{
 8001348:	b580      	push	{r7, lr}
 800134a:	af00      	add	r7, sp, #0
#if CLK_SOURCE == HSI
	//Turn on HSI
	MRCC_voidClkEnable(HSI);
 800134c:	2000      	movs	r0, #0
 800134e:	f000 f817 	bl	8001380 <MRCC_voidClkEnable>
	//Check HSI Ready
	while(MRCC_u8CheckClockReady(HSI)==NOT_READY);
 8001352:	bf00      	nop
 8001354:	2000      	movs	r0, #0
 8001356:	f000 f86b 	bl	8001430 <MRCC_u8CheckClockReady>
 800135a:	4603      	mov	r3, r0
 800135c:	2b00      	cmp	r3, #0
 800135e:	d0f9      	beq.n	8001354 <MRCC_voidInit+0xc>
	// Set Buses Prescaler
	MRCC_voidSetBusesPrescaler(AHB_PRESCALER, ABP1_PRESCALER, ABP2_PRESCALER);
 8001360:	2200      	movs	r2, #0
 8001362:	2100      	movs	r1, #0
 8001364:	2000      	movs	r0, #0
 8001366:	f000 f8d3 	bl	8001510 <MRCC_voidSetBusesPrescaler>
	// Switch to HSI Clock
	MRCC_voidSetClkSource(HSI);
 800136a:	2000      	movs	r0, #0
 800136c:	f000 f892 	bl	8001494 <MRCC_voidSetClkSource>
	// Turn off HSE and PLL
	MRCC_voidClkDisable(HSE);
 8001370:	2001      	movs	r0, #1
 8001372:	f000 f831 	bl	80013d8 <MRCC_voidClkDisable>
	MRCC_voidClkDisable(PLL);
 8001376:	2002      	movs	r0, #2
 8001378:	f000 f82e 	bl	80013d8 <MRCC_voidClkDisable>
#endif
#else
#error CLOCK Source is not configured properly

#endif
}
 800137c:	bf00      	nop
 800137e:	bd80      	pop	{r7, pc}

08001380 <MRCC_voidClkEnable>:

void MRCC_voidClkEnable(u8 A_u8ClkSource)
{
 8001380:	b480      	push	{r7}
 8001382:	b083      	sub	sp, #12
 8001384:	af00      	add	r7, sp, #0
 8001386:	4603      	mov	r3, r0
 8001388:	71fb      	strb	r3, [r7, #7]
	switch(A_u8ClkSource)
 800138a:	79fb      	ldrb	r3, [r7, #7]
 800138c:	2b02      	cmp	r3, #2
 800138e:	d014      	beq.n	80013ba <MRCC_voidClkEnable+0x3a>
 8001390:	2b02      	cmp	r3, #2
 8001392:	dc19      	bgt.n	80013c8 <MRCC_voidClkEnable+0x48>
 8001394:	2b00      	cmp	r3, #0
 8001396:	d002      	beq.n	800139e <MRCC_voidClkEnable+0x1e>
 8001398:	2b01      	cmp	r3, #1
 800139a:	d007      	beq.n	80013ac <MRCC_voidClkEnable+0x2c>
	case HSE:
		SET_BIT(RCC->CR,HSE_ON_BIT); break;
	case PLL:
		SET_BIT(RCC->CR,PLL_ON_BIT); break;
	}
}
 800139c:	e014      	b.n	80013c8 <MRCC_voidClkEnable+0x48>
		SET_BIT(RCC->CR,HSI_ON_BIT); break;
 800139e:	4b0d      	ldr	r3, [pc, #52]	; (80013d4 <MRCC_voidClkEnable+0x54>)
 80013a0:	681b      	ldr	r3, [r3, #0]
 80013a2:	4a0c      	ldr	r2, [pc, #48]	; (80013d4 <MRCC_voidClkEnable+0x54>)
 80013a4:	f043 0301 	orr.w	r3, r3, #1
 80013a8:	6013      	str	r3, [r2, #0]
 80013aa:	e00d      	b.n	80013c8 <MRCC_voidClkEnable+0x48>
		SET_BIT(RCC->CR,HSE_ON_BIT); break;
 80013ac:	4b09      	ldr	r3, [pc, #36]	; (80013d4 <MRCC_voidClkEnable+0x54>)
 80013ae:	681b      	ldr	r3, [r3, #0]
 80013b0:	4a08      	ldr	r2, [pc, #32]	; (80013d4 <MRCC_voidClkEnable+0x54>)
 80013b2:	f443 3380 	orr.w	r3, r3, #65536	; 0x10000
 80013b6:	6013      	str	r3, [r2, #0]
 80013b8:	e006      	b.n	80013c8 <MRCC_voidClkEnable+0x48>
		SET_BIT(RCC->CR,PLL_ON_BIT); break;
 80013ba:	4b06      	ldr	r3, [pc, #24]	; (80013d4 <MRCC_voidClkEnable+0x54>)
 80013bc:	681b      	ldr	r3, [r3, #0]
 80013be:	4a05      	ldr	r2, [pc, #20]	; (80013d4 <MRCC_voidClkEnable+0x54>)
 80013c0:	f043 7380 	orr.w	r3, r3, #16777216	; 0x1000000
 80013c4:	6013      	str	r3, [r2, #0]
 80013c6:	bf00      	nop
}
 80013c8:	bf00      	nop
 80013ca:	370c      	adds	r7, #12
 80013cc:	46bd      	mov	sp, r7
 80013ce:	bc80      	pop	{r7}
 80013d0:	4770      	bx	lr
 80013d2:	bf00      	nop
 80013d4:	40021000 	.word	0x40021000

080013d8 <MRCC_voidClkDisable>:
void MRCC_voidClkDisable(u8 A_u8ClkSource)
{
 80013d8:	b480      	push	{r7}
 80013da:	b083      	sub	sp, #12
 80013dc:	af00      	add	r7, sp, #0
 80013de:	4603      	mov	r3, r0
 80013e0:	71fb      	strb	r3, [r7, #7]
	switch(A_u8ClkSource)
 80013e2:	79fb      	ldrb	r3, [r7, #7]
 80013e4:	2b02      	cmp	r3, #2
 80013e6:	d014      	beq.n	8001412 <MRCC_voidClkDisable+0x3a>
 80013e8:	2b02      	cmp	r3, #2
 80013ea:	dc19      	bgt.n	8001420 <MRCC_voidClkDisable+0x48>
 80013ec:	2b00      	cmp	r3, #0
 80013ee:	d002      	beq.n	80013f6 <MRCC_voidClkDisable+0x1e>
 80013f0:	2b01      	cmp	r3, #1
 80013f2:	d007      	beq.n	8001404 <MRCC_voidClkDisable+0x2c>
	case HSE:
		CLR_BIT(RCC->CR,HSE_ON_BIT); break;
	case PLL:
		CLR_BIT(RCC->CR,PLL_ON_BIT); break;
	}
}
 80013f4:	e014      	b.n	8001420 <MRCC_voidClkDisable+0x48>
		CLR_BIT(RCC->CR,HSI_ON_BIT); break;
 80013f6:	4b0d      	ldr	r3, [pc, #52]	; (800142c <MRCC_voidClkDisable+0x54>)
 80013f8:	681b      	ldr	r3, [r3, #0]
 80013fa:	4a0c      	ldr	r2, [pc, #48]	; (800142c <MRCC_voidClkDisable+0x54>)
 80013fc:	f023 0301 	bic.w	r3, r3, #1
 8001400:	6013      	str	r3, [r2, #0]
 8001402:	e00d      	b.n	8001420 <MRCC_voidClkDisable+0x48>
		CLR_BIT(RCC->CR,HSE_ON_BIT); break;
 8001404:	4b09      	ldr	r3, [pc, #36]	; (800142c <MRCC_voidClkDisable+0x54>)
 8001406:	681b      	ldr	r3, [r3, #0]
 8001408:	4a08      	ldr	r2, [pc, #32]	; (800142c <MRCC_voidClkDisable+0x54>)
 800140a:	f423 3380 	bic.w	r3, r3, #65536	; 0x10000
 800140e:	6013      	str	r3, [r2, #0]
 8001410:	e006      	b.n	8001420 <MRCC_voidClkDisable+0x48>
		CLR_BIT(RCC->CR,PLL_ON_BIT); break;
 8001412:	4b06      	ldr	r3, [pc, #24]	; (800142c <MRCC_voidClkDisable+0x54>)
 8001414:	681b      	ldr	r3, [r3, #0]
 8001416:	4a05      	ldr	r2, [pc, #20]	; (800142c <MRCC_voidClkDisable+0x54>)
 8001418:	f023 7380 	bic.w	r3, r3, #16777216	; 0x1000000
 800141c:	6013      	str	r3, [r2, #0]
 800141e:	bf00      	nop
}
 8001420:	bf00      	nop
 8001422:	370c      	adds	r7, #12
 8001424:	46bd      	mov	sp, r7
 8001426:	bc80      	pop	{r7}
 8001428:	4770      	bx	lr
 800142a:	bf00      	nop
 800142c:	40021000 	.word	0x40021000

08001430 <MRCC_u8CheckClockReady>:
u8 MRCC_u8CheckClockReady(u8 A_u8ClkSource)
{
 8001430:	b480      	push	{r7}
 8001432:	b085      	sub	sp, #20
 8001434:	af00      	add	r7, sp, #0
 8001436:	4603      	mov	r3, r0
 8001438:	71fb      	strb	r3, [r7, #7]
	u8 local_u8ReadyFlag=0;
 800143a:	2300      	movs	r3, #0
 800143c:	73fb      	strb	r3, [r7, #15]
	switch(A_u8ClkSource)
 800143e:	79fb      	ldrb	r3, [r7, #7]
 8001440:	2b02      	cmp	r3, #2
 8001442:	d016      	beq.n	8001472 <MRCC_u8CheckClockReady+0x42>
 8001444:	2b02      	cmp	r3, #2
 8001446:	dc1c      	bgt.n	8001482 <MRCC_u8CheckClockReady+0x52>
 8001448:	2b00      	cmp	r3, #0
 800144a:	d002      	beq.n	8001452 <MRCC_u8CheckClockReady+0x22>
 800144c:	2b01      	cmp	r3, #1
 800144e:	d008      	beq.n	8001462 <MRCC_u8CheckClockReady+0x32>
 8001450:	e017      	b.n	8001482 <MRCC_u8CheckClockReady+0x52>
	{
	case HSI:
		local_u8ReadyFlag=GET_BIT(RCC->CR,HSI_RDY_BIT); break;
 8001452:	4b0f      	ldr	r3, [pc, #60]	; (8001490 <MRCC_u8CheckClockReady+0x60>)
 8001454:	681b      	ldr	r3, [r3, #0]
 8001456:	085b      	lsrs	r3, r3, #1
 8001458:	b2db      	uxtb	r3, r3
 800145a:	f003 0301 	and.w	r3, r3, #1
 800145e:	73fb      	strb	r3, [r7, #15]
 8001460:	e00f      	b.n	8001482 <MRCC_u8CheckClockReady+0x52>
	case HSE:
		local_u8ReadyFlag=GET_BIT(RCC->CR,HSE_RDY_BIT); break;
 8001462:	4b0b      	ldr	r3, [pc, #44]	; (8001490 <MRCC_u8CheckClockReady+0x60>)
 8001464:	681b      	ldr	r3, [r3, #0]
 8001466:	0c5b      	lsrs	r3, r3, #17
 8001468:	b2db      	uxtb	r3, r3
 800146a:	f003 0301 	and.w	r3, r3, #1
 800146e:	73fb      	strb	r3, [r7, #15]
 8001470:	e007      	b.n	8001482 <MRCC_u8CheckClockReady+0x52>
	case PLL:
		local_u8ReadyFlag=GET_BIT(RCC->CR,PLL_RDY_BIT); break;
 8001472:	4b07      	ldr	r3, [pc, #28]	; (8001490 <MRCC_u8CheckClockReady+0x60>)
 8001474:	681b      	ldr	r3, [r3, #0]
 8001476:	0e5b      	lsrs	r3, r3, #25
 8001478:	b2db      	uxtb	r3, r3
 800147a:	f003 0301 	and.w	r3, r3, #1
 800147e:	73fb      	strb	r3, [r7, #15]
 8001480:	bf00      	nop
	}
	return local_u8ReadyFlag;
 8001482:	7bfb      	ldrb	r3, [r7, #15]

}
 8001484:	4618      	mov	r0, r3
 8001486:	3714      	adds	r7, #20
 8001488:	46bd      	mov	sp, r7
 800148a:	bc80      	pop	{r7}
 800148c:	4770      	bx	lr
 800148e:	bf00      	nop
 8001490:	40021000 	.word	0x40021000

08001494 <MRCC_voidSetClkSource>:
		}
		break;
	}
}
void MRCC_voidSetClkSource(u8 A_u8ClkSource)
{
 8001494:	b480      	push	{r7}
 8001496:	b083      	sub	sp, #12
 8001498:	af00      	add	r7, sp, #0
 800149a:	4603      	mov	r3, r0
 800149c:	71fb      	strb	r3, [r7, #7]
	switch (A_u8ClkSource)
 800149e:	79fb      	ldrb	r3, [r7, #7]
 80014a0:	2b02      	cmp	r3, #2
 80014a2:	d020      	beq.n	80014e6 <MRCC_voidSetClkSource+0x52>
 80014a4:	2b02      	cmp	r3, #2
 80014a6:	dc2b      	bgt.n	8001500 <MRCC_voidSetClkSource+0x6c>
 80014a8:	2b00      	cmp	r3, #0
 80014aa:	d002      	beq.n	80014b2 <MRCC_voidSetClkSource+0x1e>
 80014ac:	2b01      	cmp	r3, #1
 80014ae:	d00d      	beq.n	80014cc <MRCC_voidSetClkSource+0x38>
	case PLL:
		CLR_BIT(RCC->CFGR, SYSTEM_CLOCK_BIT0);
		SET_BIT(RCC->CFGR, SYSTEM_CLOCK_BIT1);
		break;
	}
}
 80014b0:	e026      	b.n	8001500 <MRCC_voidSetClkSource+0x6c>
		CLR_BIT(RCC->CFGR, SYSTEM_CLOCK_BIT0);
 80014b2:	4b16      	ldr	r3, [pc, #88]	; (800150c <MRCC_voidSetClkSource+0x78>)
 80014b4:	685b      	ldr	r3, [r3, #4]
 80014b6:	4a15      	ldr	r2, [pc, #84]	; (800150c <MRCC_voidSetClkSource+0x78>)
 80014b8:	f023 0301 	bic.w	r3, r3, #1
 80014bc:	6053      	str	r3, [r2, #4]
		CLR_BIT(RCC->CFGR, SYSTEM_CLOCK_BIT1);
 80014be:	4b13      	ldr	r3, [pc, #76]	; (800150c <MRCC_voidSetClkSource+0x78>)
 80014c0:	685b      	ldr	r3, [r3, #4]
 80014c2:	4a12      	ldr	r2, [pc, #72]	; (800150c <MRCC_voidSetClkSource+0x78>)
 80014c4:	f023 0302 	bic.w	r3, r3, #2
 80014c8:	6053      	str	r3, [r2, #4]
		break;
 80014ca:	e019      	b.n	8001500 <MRCC_voidSetClkSource+0x6c>
		SET_BIT(RCC->CFGR, SYSTEM_CLOCK_BIT0);
 80014cc:	4b0f      	ldr	r3, [pc, #60]	; (800150c <MRCC_voidSetClkSource+0x78>)
 80014ce:	685b      	ldr	r3, [r3, #4]
 80014d0:	4a0e      	ldr	r2, [pc, #56]	; (800150c <MRCC_voidSetClkSource+0x78>)
 80014d2:	f043 0301 	orr.w	r3, r3, #1
 80014d6:	6053      	str	r3, [r2, #4]
		CLR_BIT(RCC->CFGR, SYSTEM_CLOCK_BIT1);
 80014d8:	4b0c      	ldr	r3, [pc, #48]	; (800150c <MRCC_voidSetClkSource+0x78>)
 80014da:	685b      	ldr	r3, [r3, #4]
 80014dc:	4a0b      	ldr	r2, [pc, #44]	; (800150c <MRCC_voidSetClkSource+0x78>)
 80014de:	f023 0302 	bic.w	r3, r3, #2
 80014e2:	6053      	str	r3, [r2, #4]
		break;
 80014e4:	e00c      	b.n	8001500 <MRCC_voidSetClkSource+0x6c>
		CLR_BIT(RCC->CFGR, SYSTEM_CLOCK_BIT0);
 80014e6:	4b09      	ldr	r3, [pc, #36]	; (800150c <MRCC_voidSetClkSource+0x78>)
 80014e8:	685b      	ldr	r3, [r3, #4]
 80014ea:	4a08      	ldr	r2, [pc, #32]	; (800150c <MRCC_voidSetClkSource+0x78>)
 80014ec:	f023 0301 	bic.w	r3, r3, #1
 80014f0:	6053      	str	r3, [r2, #4]
		SET_BIT(RCC->CFGR, SYSTEM_CLOCK_BIT1);
 80014f2:	4b06      	ldr	r3, [pc, #24]	; (800150c <MRCC_voidSetClkSource+0x78>)
 80014f4:	685b      	ldr	r3, [r3, #4]
 80014f6:	4a05      	ldr	r2, [pc, #20]	; (800150c <MRCC_voidSetClkSource+0x78>)
 80014f8:	f043 0302 	orr.w	r3, r3, #2
 80014fc:	6053      	str	r3, [r2, #4]
		break;
 80014fe:	bf00      	nop
}
 8001500:	bf00      	nop
 8001502:	370c      	adds	r7, #12
 8001504:	46bd      	mov	sp, r7
 8001506:	bc80      	pop	{r7}
 8001508:	4770      	bx	lr
 800150a:	bf00      	nop
 800150c:	40021000 	.word	0x40021000

08001510 <MRCC_voidSetBusesPrescaler>:

void MRCC_voidSetBusesPrescaler(u8 A_u8AHBPrescaler, u8 A_u8APB1Prescaler, u8 A_u8APB2Prescaler)
{
 8001510:	b480      	push	{r7}
 8001512:	b083      	sub	sp, #12
 8001514:	af00      	add	r7, sp, #0
 8001516:	4603      	mov	r3, r0
 8001518:	71fb      	strb	r3, [r7, #7]
 800151a:	460b      	mov	r3, r1
 800151c:	71bb      	strb	r3, [r7, #6]
 800151e:	4613      	mov	r3, r2
 8001520:	717b      	strb	r3, [r7, #5]
	RCC->CFGR &= ~(BUSES_PRESCALER_RESET_MASK << AHB_PRESCALER_FBIT);
 8001522:	4b12      	ldr	r3, [pc, #72]	; (800156c <MRCC_voidSetBusesPrescaler+0x5c>)
 8001524:	685b      	ldr	r3, [r3, #4]
 8001526:	4a11      	ldr	r2, [pc, #68]	; (800156c <MRCC_voidSetBusesPrescaler+0x5c>)
 8001528:	f423 537f 	bic.w	r3, r3, #16320	; 0x3fc0
 800152c:	f023 0330 	bic.w	r3, r3, #48	; 0x30
 8001530:	6053      	str	r3, [r2, #4]
	RCC->CFGR |= (A_u8AHBPrescaler << AHB_PRESCALER_FBIT);
 8001532:	4b0e      	ldr	r3, [pc, #56]	; (800156c <MRCC_voidSetBusesPrescaler+0x5c>)
 8001534:	685b      	ldr	r3, [r3, #4]
 8001536:	79fa      	ldrb	r2, [r7, #7]
 8001538:	0112      	lsls	r2, r2, #4
 800153a:	4611      	mov	r1, r2
 800153c:	4a0b      	ldr	r2, [pc, #44]	; (800156c <MRCC_voidSetBusesPrescaler+0x5c>)
 800153e:	430b      	orrs	r3, r1
 8001540:	6053      	str	r3, [r2, #4]
	RCC->CFGR |= (A_u8APB1Prescaler << APB1_PRESCALER_FBIT);
 8001542:	4b0a      	ldr	r3, [pc, #40]	; (800156c <MRCC_voidSetBusesPrescaler+0x5c>)
 8001544:	685b      	ldr	r3, [r3, #4]
 8001546:	79ba      	ldrb	r2, [r7, #6]
 8001548:	0212      	lsls	r2, r2, #8
 800154a:	4611      	mov	r1, r2
 800154c:	4a07      	ldr	r2, [pc, #28]	; (800156c <MRCC_voidSetBusesPrescaler+0x5c>)
 800154e:	430b      	orrs	r3, r1
 8001550:	6053      	str	r3, [r2, #4]
	RCC->CFGR |= (A_u8APB2Prescaler << APB2_PRESCALER_FBIT);
 8001552:	4b06      	ldr	r3, [pc, #24]	; (800156c <MRCC_voidSetBusesPrescaler+0x5c>)
 8001554:	685b      	ldr	r3, [r3, #4]
 8001556:	797a      	ldrb	r2, [r7, #5]
 8001558:	02d2      	lsls	r2, r2, #11
 800155a:	4611      	mov	r1, r2
 800155c:	4a03      	ldr	r2, [pc, #12]	; (800156c <MRCC_voidSetBusesPrescaler+0x5c>)
 800155e:	430b      	orrs	r3, r1
 8001560:	6053      	str	r3, [r2, #4]
}
 8001562:	bf00      	nop
 8001564:	370c      	adds	r7, #12
 8001566:	46bd      	mov	sp, r7
 8001568:	bc80      	pop	{r7}
 800156a:	4770      	bx	lr
 800156c:	40021000 	.word	0x40021000

08001570 <MRCC_voidControlPeripheralsClock>:
void MRCC_voidControlPeripheralsClock(u8 A_u8BusID, u8 A_u8PeripheralID, u8 A_u8Control)
{
 8001570:	b480      	push	{r7}
 8001572:	b083      	sub	sp, #12
 8001574:	af00      	add	r7, sp, #0
 8001576:	4603      	mov	r3, r0
 8001578:	71fb      	strb	r3, [r7, #7]
 800157a:	460b      	mov	r3, r1
 800157c:	71bb      	strb	r3, [r7, #6]
 800157e:	4613      	mov	r3, r2
 8001580:	717b      	strb	r3, [r7, #5]
	if(A_u8BusID==APB1)
 8001582:	79fb      	ldrb	r3, [r7, #7]
 8001584:	2b00      	cmp	r3, #0
 8001586:	f040 81ea 	bne.w	800195e <MRCC_voidControlPeripheralsClock+0x3ee>
	{
		switch(A_u8PeripheralID)
 800158a:	79bb      	ldrb	r3, [r7, #6]
 800158c:	2b1d      	cmp	r3, #29
 800158e:	f200 8334 	bhi.w	8001bfa <MRCC_voidControlPeripheralsClock+0x68a>
 8001592:	a201      	add	r2, pc, #4	; (adr r2, 8001598 <MRCC_voidControlPeripheralsClock+0x28>)
 8001594:	f852 f023 	ldr.w	pc, [r2, r3, lsl #2]
 8001598:	08001611 	.word	0x08001611
 800159c:	0800163b 	.word	0x0800163b
 80015a0:	08001665 	.word	0x08001665
 80015a4:	0800168f 	.word	0x0800168f
 80015a8:	080016b9 	.word	0x080016b9
 80015ac:	080016e3 	.word	0x080016e3
 80015b0:	08001bfb 	.word	0x08001bfb
 80015b4:	08001bfb 	.word	0x08001bfb
 80015b8:	08001bfb 	.word	0x08001bfb
 80015bc:	08001bfb 	.word	0x08001bfb
 80015c0:	08001bfb 	.word	0x08001bfb
 80015c4:	0800170d 	.word	0x0800170d
 80015c8:	08001bfb 	.word	0x08001bfb
 80015cc:	08001bfb 	.word	0x08001bfb
 80015d0:	08001737 	.word	0x08001737
 80015d4:	08001761 	.word	0x08001761
 80015d8:	08001bfb 	.word	0x08001bfb
 80015dc:	0800178b 	.word	0x0800178b
 80015e0:	080017b5 	.word	0x080017b5
 80015e4:	080017df 	.word	0x080017df
 80015e8:	08001809 	.word	0x08001809
 80015ec:	08001833 	.word	0x08001833
 80015f0:	0800185d 	.word	0x0800185d
 80015f4:	08001bfb 	.word	0x08001bfb
 80015f8:	08001bfb 	.word	0x08001bfb
 80015fc:	0800188d 	.word	0x0800188d
 8001600:	080018b7 	.word	0x080018b7
 8001604:	080018e1 	.word	0x080018e1
 8001608:	0800190b 	.word	0x0800190b
 800160c:	08001935 	.word	0x08001935
		{
			case TIM2:
				if(A_u8Control==ENABLE_PERIPHERAL)			SET_BIT(RCC->APB1ENR,TIM2EN_BIT);
 8001610:	797b      	ldrb	r3, [r7, #5]
 8001612:	2b01      	cmp	r3, #1
 8001614:	d106      	bne.n	8001624 <MRCC_voidControlPeripheralsClock+0xb4>
 8001616:	4b9c      	ldr	r3, [pc, #624]	; (8001888 <MRCC_voidControlPeripheralsClock+0x318>)
 8001618:	69db      	ldr	r3, [r3, #28]
 800161a:	4a9b      	ldr	r2, [pc, #620]	; (8001888 <MRCC_voidControlPeripheralsClock+0x318>)
 800161c:	f043 0301 	orr.w	r3, r3, #1
 8001620:	61d3      	str	r3, [r2, #28]
				else if(A_u8Control==DISABLE_PERIPHERAL)	CLR_BIT(RCC->APB1ENR,TIM2EN_BIT);
			break;
 8001622:	e2ab      	b.n	8001b7c <MRCC_voidControlPeripheralsClock+0x60c>
				else if(A_u8Control==DISABLE_PERIPHERAL)	CLR_BIT(RCC->APB1ENR,TIM2EN_BIT);
 8001624:	797b      	ldrb	r3, [r7, #5]
 8001626:	2b00      	cmp	r3, #0
 8001628:	f040 82a8 	bne.w	8001b7c <MRCC_voidControlPeripheralsClock+0x60c>
 800162c:	4b96      	ldr	r3, [pc, #600]	; (8001888 <MRCC_voidControlPeripheralsClock+0x318>)
 800162e:	69db      	ldr	r3, [r3, #28]
 8001630:	4a95      	ldr	r2, [pc, #596]	; (8001888 <MRCC_voidControlPeripheralsClock+0x318>)
 8001632:	f023 0301 	bic.w	r3, r3, #1
 8001636:	61d3      	str	r3, [r2, #28]
			break;
 8001638:	e2a0      	b.n	8001b7c <MRCC_voidControlPeripheralsClock+0x60c>
			case TIM3:
				if(A_u8Control==ENABLE_PERIPHERAL)			SET_BIT(RCC->APB1ENR,TIM3EN_BIT);
 800163a:	797b      	ldrb	r3, [r7, #5]
 800163c:	2b01      	cmp	r3, #1
 800163e:	d106      	bne.n	800164e <MRCC_voidControlPeripheralsClock+0xde>
 8001640:	4b91      	ldr	r3, [pc, #580]	; (8001888 <MRCC_voidControlPeripheralsClock+0x318>)
 8001642:	69db      	ldr	r3, [r3, #28]
 8001644:	4a90      	ldr	r2, [pc, #576]	; (8001888 <MRCC_voidControlPeripheralsClock+0x318>)
 8001646:	f043 0302 	orr.w	r3, r3, #2
 800164a:	61d3      	str	r3, [r2, #28]
				else if(A_u8Control==DISABLE_PERIPHERAL)	CLR_BIT(RCC->APB1ENR,TIM3EN_BIT);
			break;
 800164c:	e298      	b.n	8001b80 <MRCC_voidControlPeripheralsClock+0x610>
				else if(A_u8Control==DISABLE_PERIPHERAL)	CLR_BIT(RCC->APB1ENR,TIM3EN_BIT);
 800164e:	797b      	ldrb	r3, [r7, #5]
 8001650:	2b00      	cmp	r3, #0
 8001652:	f040 8295 	bne.w	8001b80 <MRCC_voidControlPeripheralsClock+0x610>
 8001656:	4b8c      	ldr	r3, [pc, #560]	; (8001888 <MRCC_voidControlPeripheralsClock+0x318>)
 8001658:	69db      	ldr	r3, [r3, #28]
 800165a:	4a8b      	ldr	r2, [pc, #556]	; (8001888 <MRCC_voidControlPeripheralsClock+0x318>)
 800165c:	f023 0302 	bic.w	r3, r3, #2
 8001660:	61d3      	str	r3, [r2, #28]
			break;
 8001662:	e28d      	b.n	8001b80 <MRCC_voidControlPeripheralsClock+0x610>
			case TIM4:
				if(A_u8Control==ENABLE_PERIPHERAL)			SET_BIT(RCC->APB1ENR,TIM4EN_BIT);
 8001664:	797b      	ldrb	r3, [r7, #5]
 8001666:	2b01      	cmp	r3, #1
 8001668:	d106      	bne.n	8001678 <MRCC_voidControlPeripheralsClock+0x108>
 800166a:	4b87      	ldr	r3, [pc, #540]	; (8001888 <MRCC_voidControlPeripheralsClock+0x318>)
 800166c:	69db      	ldr	r3, [r3, #28]
 800166e:	4a86      	ldr	r2, [pc, #536]	; (8001888 <MRCC_voidControlPeripheralsClock+0x318>)
 8001670:	f043 0304 	orr.w	r3, r3, #4
 8001674:	61d3      	str	r3, [r2, #28]
				else if(A_u8Control==DISABLE_PERIPHERAL)	CLR_BIT(RCC->APB1ENR,TIM4EN_BIT);
			break;
 8001676:	e285      	b.n	8001b84 <MRCC_voidControlPeripheralsClock+0x614>
				else if(A_u8Control==DISABLE_PERIPHERAL)	CLR_BIT(RCC->APB1ENR,TIM4EN_BIT);
 8001678:	797b      	ldrb	r3, [r7, #5]
 800167a:	2b00      	cmp	r3, #0
 800167c:	f040 8282 	bne.w	8001b84 <MRCC_voidControlPeripheralsClock+0x614>
 8001680:	4b81      	ldr	r3, [pc, #516]	; (8001888 <MRCC_voidControlPeripheralsClock+0x318>)
 8001682:	69db      	ldr	r3, [r3, #28]
 8001684:	4a80      	ldr	r2, [pc, #512]	; (8001888 <MRCC_voidControlPeripheralsClock+0x318>)
 8001686:	f023 0304 	bic.w	r3, r3, #4
 800168a:	61d3      	str	r3, [r2, #28]
			break;
 800168c:	e27a      	b.n	8001b84 <MRCC_voidControlPeripheralsClock+0x614>
			case TIM5:
				if(A_u8Control==ENABLE_PERIPHERAL)			SET_BIT(RCC->APB1ENR,TIM5EN_BIT);
 800168e:	797b      	ldrb	r3, [r7, #5]
 8001690:	2b01      	cmp	r3, #1
 8001692:	d106      	bne.n	80016a2 <MRCC_voidControlPeripheralsClock+0x132>
 8001694:	4b7c      	ldr	r3, [pc, #496]	; (8001888 <MRCC_voidControlPeripheralsClock+0x318>)
 8001696:	69db      	ldr	r3, [r3, #28]
 8001698:	4a7b      	ldr	r2, [pc, #492]	; (8001888 <MRCC_voidControlPeripheralsClock+0x318>)
 800169a:	f043 0308 	orr.w	r3, r3, #8
 800169e:	61d3      	str	r3, [r2, #28]
				else if(A_u8Control==DISABLE_PERIPHERAL)	CLR_BIT(RCC->APB1ENR,TIM5EN_BIT);
			break;
 80016a0:	e272      	b.n	8001b88 <MRCC_voidControlPeripheralsClock+0x618>
				else if(A_u8Control==DISABLE_PERIPHERAL)	CLR_BIT(RCC->APB1ENR,TIM5EN_BIT);
 80016a2:	797b      	ldrb	r3, [r7, #5]
 80016a4:	2b00      	cmp	r3, #0
 80016a6:	f040 826f 	bne.w	8001b88 <MRCC_voidControlPeripheralsClock+0x618>
 80016aa:	4b77      	ldr	r3, [pc, #476]	; (8001888 <MRCC_voidControlPeripheralsClock+0x318>)
 80016ac:	69db      	ldr	r3, [r3, #28]
 80016ae:	4a76      	ldr	r2, [pc, #472]	; (8001888 <MRCC_voidControlPeripheralsClock+0x318>)
 80016b0:	f023 0308 	bic.w	r3, r3, #8
 80016b4:	61d3      	str	r3, [r2, #28]
			break;
 80016b6:	e267      	b.n	8001b88 <MRCC_voidControlPeripheralsClock+0x618>
			case TIM6:
				if(A_u8Control==ENABLE_PERIPHERAL)			SET_BIT(RCC->APB1ENR,TIM6EN_BIT);
 80016b8:	797b      	ldrb	r3, [r7, #5]
 80016ba:	2b01      	cmp	r3, #1
 80016bc:	d106      	bne.n	80016cc <MRCC_voidControlPeripheralsClock+0x15c>
 80016be:	4b72      	ldr	r3, [pc, #456]	; (8001888 <MRCC_voidControlPeripheralsClock+0x318>)
 80016c0:	69db      	ldr	r3, [r3, #28]
 80016c2:	4a71      	ldr	r2, [pc, #452]	; (8001888 <MRCC_voidControlPeripheralsClock+0x318>)
 80016c4:	f043 0310 	orr.w	r3, r3, #16
 80016c8:	61d3      	str	r3, [r2, #28]
				else if(A_u8Control==DISABLE_PERIPHERAL)	CLR_BIT(RCC->APB1ENR,TIM6EN_BIT);
			break;
 80016ca:	e25f      	b.n	8001b8c <MRCC_voidControlPeripheralsClock+0x61c>
				else if(A_u8Control==DISABLE_PERIPHERAL)	CLR_BIT(RCC->APB1ENR,TIM6EN_BIT);
 80016cc:	797b      	ldrb	r3, [r7, #5]
 80016ce:	2b00      	cmp	r3, #0
 80016d0:	f040 825c 	bne.w	8001b8c <MRCC_voidControlPeripheralsClock+0x61c>
 80016d4:	4b6c      	ldr	r3, [pc, #432]	; (8001888 <MRCC_voidControlPeripheralsClock+0x318>)
 80016d6:	69db      	ldr	r3, [r3, #28]
 80016d8:	4a6b      	ldr	r2, [pc, #428]	; (8001888 <MRCC_voidControlPeripheralsClock+0x318>)
 80016da:	f023 0310 	bic.w	r3, r3, #16
 80016de:	61d3      	str	r3, [r2, #28]
			break;
 80016e0:	e254      	b.n	8001b8c <MRCC_voidControlPeripheralsClock+0x61c>
			case TIM7:
				if(A_u8Control==ENABLE_PERIPHERAL)			SET_BIT(RCC->APB1ENR,TIM7EN_BIT);
 80016e2:	797b      	ldrb	r3, [r7, #5]
 80016e4:	2b01      	cmp	r3, #1
 80016e6:	d106      	bne.n	80016f6 <MRCC_voidControlPeripheralsClock+0x186>
 80016e8:	4b67      	ldr	r3, [pc, #412]	; (8001888 <MRCC_voidControlPeripheralsClock+0x318>)
 80016ea:	69db      	ldr	r3, [r3, #28]
 80016ec:	4a66      	ldr	r2, [pc, #408]	; (8001888 <MRCC_voidControlPeripheralsClock+0x318>)
 80016ee:	f043 0320 	orr.w	r3, r3, #32
 80016f2:	61d3      	str	r3, [r2, #28]
				else if(A_u8Control==DISABLE_PERIPHERAL)	CLR_BIT(RCC->APB1ENR,TIM7EN_BIT);
			break;
 80016f4:	e24c      	b.n	8001b90 <MRCC_voidControlPeripheralsClock+0x620>
				else if(A_u8Control==DISABLE_PERIPHERAL)	CLR_BIT(RCC->APB1ENR,TIM7EN_BIT);
 80016f6:	797b      	ldrb	r3, [r7, #5]
 80016f8:	2b00      	cmp	r3, #0
 80016fa:	f040 8249 	bne.w	8001b90 <MRCC_voidControlPeripheralsClock+0x620>
 80016fe:	4b62      	ldr	r3, [pc, #392]	; (8001888 <MRCC_voidControlPeripheralsClock+0x318>)
 8001700:	69db      	ldr	r3, [r3, #28]
 8001702:	4a61      	ldr	r2, [pc, #388]	; (8001888 <MRCC_voidControlPeripheralsClock+0x318>)
 8001704:	f023 0320 	bic.w	r3, r3, #32
 8001708:	61d3      	str	r3, [r2, #28]
			break;
 800170a:	e241      	b.n	8001b90 <MRCC_voidControlPeripheralsClock+0x620>
			case WWDG:
				if(A_u8Control==ENABLE_PERIPHERAL)			SET_BIT(RCC->APB1ENR,WWDGEN_BIT);
 800170c:	797b      	ldrb	r3, [r7, #5]
 800170e:	2b01      	cmp	r3, #1
 8001710:	d106      	bne.n	8001720 <MRCC_voidControlPeripheralsClock+0x1b0>
 8001712:	4b5d      	ldr	r3, [pc, #372]	; (8001888 <MRCC_voidControlPeripheralsClock+0x318>)
 8001714:	69db      	ldr	r3, [r3, #28]
 8001716:	4a5c      	ldr	r2, [pc, #368]	; (8001888 <MRCC_voidControlPeripheralsClock+0x318>)
 8001718:	f443 6300 	orr.w	r3, r3, #2048	; 0x800
 800171c:	61d3      	str	r3, [r2, #28]
				else if(A_u8Control==DISABLE_PERIPHERAL)	CLR_BIT(RCC->APB1ENR,WWDGEN_BIT);
			break;
 800171e:	e239      	b.n	8001b94 <MRCC_voidControlPeripheralsClock+0x624>
				else if(A_u8Control==DISABLE_PERIPHERAL)	CLR_BIT(RCC->APB1ENR,WWDGEN_BIT);
 8001720:	797b      	ldrb	r3, [r7, #5]
 8001722:	2b00      	cmp	r3, #0
 8001724:	f040 8236 	bne.w	8001b94 <MRCC_voidControlPeripheralsClock+0x624>
 8001728:	4b57      	ldr	r3, [pc, #348]	; (8001888 <MRCC_voidControlPeripheralsClock+0x318>)
 800172a:	69db      	ldr	r3, [r3, #28]
 800172c:	4a56      	ldr	r2, [pc, #344]	; (8001888 <MRCC_voidControlPeripheralsClock+0x318>)
 800172e:	f423 6300 	bic.w	r3, r3, #2048	; 0x800
 8001732:	61d3      	str	r3, [r2, #28]
			break;
 8001734:	e22e      	b.n	8001b94 <MRCC_voidControlPeripheralsClock+0x624>
			case SPI2:
				if(A_u8Control==ENABLE_PERIPHERAL)			SET_BIT(RCC->APB1ENR,SPI2EN_BIT);
 8001736:	797b      	ldrb	r3, [r7, #5]
 8001738:	2b01      	cmp	r3, #1
 800173a:	d106      	bne.n	800174a <MRCC_voidControlPeripheralsClock+0x1da>
 800173c:	4b52      	ldr	r3, [pc, #328]	; (8001888 <MRCC_voidControlPeripheralsClock+0x318>)
 800173e:	69db      	ldr	r3, [r3, #28]
 8001740:	4a51      	ldr	r2, [pc, #324]	; (8001888 <MRCC_voidControlPeripheralsClock+0x318>)
 8001742:	f443 4380 	orr.w	r3, r3, #16384	; 0x4000
 8001746:	61d3      	str	r3, [r2, #28]
				else if(A_u8Control==DISABLE_PERIPHERAL)	CLR_BIT(RCC->APB1ENR,SPI2EN_BIT);
			break;
 8001748:	e226      	b.n	8001b98 <MRCC_voidControlPeripheralsClock+0x628>
				else if(A_u8Control==DISABLE_PERIPHERAL)	CLR_BIT(RCC->APB1ENR,SPI2EN_BIT);
 800174a:	797b      	ldrb	r3, [r7, #5]
 800174c:	2b00      	cmp	r3, #0
 800174e:	f040 8223 	bne.w	8001b98 <MRCC_voidControlPeripheralsClock+0x628>
 8001752:	4b4d      	ldr	r3, [pc, #308]	; (8001888 <MRCC_voidControlPeripheralsClock+0x318>)
 8001754:	69db      	ldr	r3, [r3, #28]
 8001756:	4a4c      	ldr	r2, [pc, #304]	; (8001888 <MRCC_voidControlPeripheralsClock+0x318>)
 8001758:	f423 4380 	bic.w	r3, r3, #16384	; 0x4000
 800175c:	61d3      	str	r3, [r2, #28]
			break;
 800175e:	e21b      	b.n	8001b98 <MRCC_voidControlPeripheralsClock+0x628>
			case SPI3:
				if(A_u8Control==ENABLE_PERIPHERAL)			SET_BIT(RCC->APB1ENR,SPI3EN_BIT);
 8001760:	797b      	ldrb	r3, [r7, #5]
 8001762:	2b01      	cmp	r3, #1
 8001764:	d106      	bne.n	8001774 <MRCC_voidControlPeripheralsClock+0x204>
 8001766:	4b48      	ldr	r3, [pc, #288]	; (8001888 <MRCC_voidControlPeripheralsClock+0x318>)
 8001768:	69db      	ldr	r3, [r3, #28]
 800176a:	4a47      	ldr	r2, [pc, #284]	; (8001888 <MRCC_voidControlPeripheralsClock+0x318>)
 800176c:	f443 4300 	orr.w	r3, r3, #32768	; 0x8000
 8001770:	61d3      	str	r3, [r2, #28]
				else if(A_u8Control==DISABLE_PERIPHERAL)	CLR_BIT(RCC->APB1ENR,SPI3EN_BIT);
			break;
 8001772:	e213      	b.n	8001b9c <MRCC_voidControlPeripheralsClock+0x62c>
				else if(A_u8Control==DISABLE_PERIPHERAL)	CLR_BIT(RCC->APB1ENR,SPI3EN_BIT);
 8001774:	797b      	ldrb	r3, [r7, #5]
 8001776:	2b00      	cmp	r3, #0
 8001778:	f040 8210 	bne.w	8001b9c <MRCC_voidControlPeripheralsClock+0x62c>
 800177c:	4b42      	ldr	r3, [pc, #264]	; (8001888 <MRCC_voidControlPeripheralsClock+0x318>)
 800177e:	69db      	ldr	r3, [r3, #28]
 8001780:	4a41      	ldr	r2, [pc, #260]	; (8001888 <MRCC_voidControlPeripheralsClock+0x318>)
 8001782:	f423 4300 	bic.w	r3, r3, #32768	; 0x8000
 8001786:	61d3      	str	r3, [r2, #28]
			break;
 8001788:	e208      	b.n	8001b9c <MRCC_voidControlPeripheralsClock+0x62c>
			case USART2:
				if(A_u8Control==ENABLE_PERIPHERAL)			SET_BIT(RCC->APB1ENR,USART2EN_BIT);
 800178a:	797b      	ldrb	r3, [r7, #5]
 800178c:	2b01      	cmp	r3, #1
 800178e:	d106      	bne.n	800179e <MRCC_voidControlPeripheralsClock+0x22e>
 8001790:	4b3d      	ldr	r3, [pc, #244]	; (8001888 <MRCC_voidControlPeripheralsClock+0x318>)
 8001792:	69db      	ldr	r3, [r3, #28]
 8001794:	4a3c      	ldr	r2, [pc, #240]	; (8001888 <MRCC_voidControlPeripheralsClock+0x318>)
 8001796:	f443 3300 	orr.w	r3, r3, #131072	; 0x20000
 800179a:	61d3      	str	r3, [r2, #28]
				else if(A_u8Control==DISABLE_PERIPHERAL)	CLR_BIT(RCC->APB1ENR,USART2EN_BIT);
			break;
 800179c:	e200      	b.n	8001ba0 <MRCC_voidControlPeripheralsClock+0x630>
				else if(A_u8Control==DISABLE_PERIPHERAL)	CLR_BIT(RCC->APB1ENR,USART2EN_BIT);
 800179e:	797b      	ldrb	r3, [r7, #5]
 80017a0:	2b00      	cmp	r3, #0
 80017a2:	f040 81fd 	bne.w	8001ba0 <MRCC_voidControlPeripheralsClock+0x630>
 80017a6:	4b38      	ldr	r3, [pc, #224]	; (8001888 <MRCC_voidControlPeripheralsClock+0x318>)
 80017a8:	69db      	ldr	r3, [r3, #28]
 80017aa:	4a37      	ldr	r2, [pc, #220]	; (8001888 <MRCC_voidControlPeripheralsClock+0x318>)
 80017ac:	f423 3300 	bic.w	r3, r3, #131072	; 0x20000
 80017b0:	61d3      	str	r3, [r2, #28]
			break;
 80017b2:	e1f5      	b.n	8001ba0 <MRCC_voidControlPeripheralsClock+0x630>
			case USART3:
				if(A_u8Control==ENABLE_PERIPHERAL)			SET_BIT(RCC->APB1ENR,USART3EN_BIT);
 80017b4:	797b      	ldrb	r3, [r7, #5]
 80017b6:	2b01      	cmp	r3, #1
 80017b8:	d106      	bne.n	80017c8 <MRCC_voidControlPeripheralsClock+0x258>
 80017ba:	4b33      	ldr	r3, [pc, #204]	; (8001888 <MRCC_voidControlPeripheralsClock+0x318>)
 80017bc:	69db      	ldr	r3, [r3, #28]
 80017be:	4a32      	ldr	r2, [pc, #200]	; (8001888 <MRCC_voidControlPeripheralsClock+0x318>)
 80017c0:	f443 2380 	orr.w	r3, r3, #262144	; 0x40000
 80017c4:	61d3      	str	r3, [r2, #28]
				else if(A_u8Control==DISABLE_PERIPHERAL)	CLR_BIT(RCC->APB1ENR,USART3EN_BIT);
			break;
 80017c6:	e1ed      	b.n	8001ba4 <MRCC_voidControlPeripheralsClock+0x634>
				else if(A_u8Control==DISABLE_PERIPHERAL)	CLR_BIT(RCC->APB1ENR,USART3EN_BIT);
 80017c8:	797b      	ldrb	r3, [r7, #5]
 80017ca:	2b00      	cmp	r3, #0
 80017cc:	f040 81ea 	bne.w	8001ba4 <MRCC_voidControlPeripheralsClock+0x634>
 80017d0:	4b2d      	ldr	r3, [pc, #180]	; (8001888 <MRCC_voidControlPeripheralsClock+0x318>)
 80017d2:	69db      	ldr	r3, [r3, #28]
 80017d4:	4a2c      	ldr	r2, [pc, #176]	; (8001888 <MRCC_voidControlPeripheralsClock+0x318>)
 80017d6:	f423 2380 	bic.w	r3, r3, #262144	; 0x40000
 80017da:	61d3      	str	r3, [r2, #28]
			break;
 80017dc:	e1e2      	b.n	8001ba4 <MRCC_voidControlPeripheralsClock+0x634>
			case USART4:
				if(A_u8Control==ENABLE_PERIPHERAL)			SET_BIT(RCC->APB1ENR,UART4EN_BIT);
 80017de:	797b      	ldrb	r3, [r7, #5]
 80017e0:	2b01      	cmp	r3, #1
 80017e2:	d106      	bne.n	80017f2 <MRCC_voidControlPeripheralsClock+0x282>
 80017e4:	4b28      	ldr	r3, [pc, #160]	; (8001888 <MRCC_voidControlPeripheralsClock+0x318>)
 80017e6:	69db      	ldr	r3, [r3, #28]
 80017e8:	4a27      	ldr	r2, [pc, #156]	; (8001888 <MRCC_voidControlPeripheralsClock+0x318>)
 80017ea:	f443 2300 	orr.w	r3, r3, #524288	; 0x80000
 80017ee:	61d3      	str	r3, [r2, #28]
				else if(A_u8Control==DISABLE_PERIPHERAL)	CLR_BIT(RCC->APB1ENR,UART4EN_BIT);
			break;
 80017f0:	e1da      	b.n	8001ba8 <MRCC_voidControlPeripheralsClock+0x638>
				else if(A_u8Control==DISABLE_PERIPHERAL)	CLR_BIT(RCC->APB1ENR,UART4EN_BIT);
 80017f2:	797b      	ldrb	r3, [r7, #5]
 80017f4:	2b00      	cmp	r3, #0
 80017f6:	f040 81d7 	bne.w	8001ba8 <MRCC_voidControlPeripheralsClock+0x638>
 80017fa:	4b23      	ldr	r3, [pc, #140]	; (8001888 <MRCC_voidControlPeripheralsClock+0x318>)
 80017fc:	69db      	ldr	r3, [r3, #28]
 80017fe:	4a22      	ldr	r2, [pc, #136]	; (8001888 <MRCC_voidControlPeripheralsClock+0x318>)
 8001800:	f423 2300 	bic.w	r3, r3, #524288	; 0x80000
 8001804:	61d3      	str	r3, [r2, #28]
			break;
 8001806:	e1cf      	b.n	8001ba8 <MRCC_voidControlPeripheralsClock+0x638>
			case USART5:
				if(A_u8Control==ENABLE_PERIPHERAL)			SET_BIT(RCC->APB1ENR,UART5EN_BIT);
 8001808:	797b      	ldrb	r3, [r7, #5]
 800180a:	2b01      	cmp	r3, #1
 800180c:	d106      	bne.n	800181c <MRCC_voidControlPeripheralsClock+0x2ac>
 800180e:	4b1e      	ldr	r3, [pc, #120]	; (8001888 <MRCC_voidControlPeripheralsClock+0x318>)
 8001810:	69db      	ldr	r3, [r3, #28]
 8001812:	4a1d      	ldr	r2, [pc, #116]	; (8001888 <MRCC_voidControlPeripheralsClock+0x318>)
 8001814:	f443 1380 	orr.w	r3, r3, #1048576	; 0x100000
 8001818:	61d3      	str	r3, [r2, #28]
				else if(A_u8Control==DISABLE_PERIPHERAL)	CLR_BIT(RCC->APB1ENR,UART5EN_BIT);
			break;
 800181a:	e1c7      	b.n	8001bac <MRCC_voidControlPeripheralsClock+0x63c>
				else if(A_u8Control==DISABLE_PERIPHERAL)	CLR_BIT(RCC->APB1ENR,UART5EN_BIT);
 800181c:	797b      	ldrb	r3, [r7, #5]
 800181e:	2b00      	cmp	r3, #0
 8001820:	f040 81c4 	bne.w	8001bac <MRCC_voidControlPeripheralsClock+0x63c>
 8001824:	4b18      	ldr	r3, [pc, #96]	; (8001888 <MRCC_voidControlPeripheralsClock+0x318>)
 8001826:	69db      	ldr	r3, [r3, #28]
 8001828:	4a17      	ldr	r2, [pc, #92]	; (8001888 <MRCC_voidControlPeripheralsClock+0x318>)
 800182a:	f423 1380 	bic.w	r3, r3, #1048576	; 0x100000
 800182e:	61d3      	str	r3, [r2, #28]
			break;
 8001830:	e1bc      	b.n	8001bac <MRCC_voidControlPeripheralsClock+0x63c>
			case I2C1:
				if(A_u8Control==ENABLE_PERIPHERAL)			SET_BIT(RCC->APB1ENR,I2C1EN_BIT);
 8001832:	797b      	ldrb	r3, [r7, #5]
 8001834:	2b01      	cmp	r3, #1
 8001836:	d106      	bne.n	8001846 <MRCC_voidControlPeripheralsClock+0x2d6>
 8001838:	4b13      	ldr	r3, [pc, #76]	; (8001888 <MRCC_voidControlPeripheralsClock+0x318>)
 800183a:	69db      	ldr	r3, [r3, #28]
 800183c:	4a12      	ldr	r2, [pc, #72]	; (8001888 <MRCC_voidControlPeripheralsClock+0x318>)
 800183e:	f443 1300 	orr.w	r3, r3, #2097152	; 0x200000
 8001842:	61d3      	str	r3, [r2, #28]
				else if(A_u8Control==DISABLE_PERIPHERAL)	CLR_BIT(RCC->APB1ENR,I2C1EN_BIT);
			break;
 8001844:	e1b4      	b.n	8001bb0 <MRCC_voidControlPeripheralsClock+0x640>
				else if(A_u8Control==DISABLE_PERIPHERAL)	CLR_BIT(RCC->APB1ENR,I2C1EN_BIT);
 8001846:	797b      	ldrb	r3, [r7, #5]
 8001848:	2b00      	cmp	r3, #0
 800184a:	f040 81b1 	bne.w	8001bb0 <MRCC_voidControlPeripheralsClock+0x640>
 800184e:	4b0e      	ldr	r3, [pc, #56]	; (8001888 <MRCC_voidControlPeripheralsClock+0x318>)
 8001850:	69db      	ldr	r3, [r3, #28]
 8001852:	4a0d      	ldr	r2, [pc, #52]	; (8001888 <MRCC_voidControlPeripheralsClock+0x318>)
 8001854:	f423 1300 	bic.w	r3, r3, #2097152	; 0x200000
 8001858:	61d3      	str	r3, [r2, #28]
			break;
 800185a:	e1a9      	b.n	8001bb0 <MRCC_voidControlPeripheralsClock+0x640>
			case I2C2:
				if(A_u8Control==ENABLE_PERIPHERAL)			SET_BIT(RCC->APB1ENR,I2C2EN_BIT);
 800185c:	797b      	ldrb	r3, [r7, #5]
 800185e:	2b01      	cmp	r3, #1
 8001860:	d106      	bne.n	8001870 <MRCC_voidControlPeripheralsClock+0x300>
 8001862:	4b09      	ldr	r3, [pc, #36]	; (8001888 <MRCC_voidControlPeripheralsClock+0x318>)
 8001864:	69db      	ldr	r3, [r3, #28]
 8001866:	4a08      	ldr	r2, [pc, #32]	; (8001888 <MRCC_voidControlPeripheralsClock+0x318>)
 8001868:	f443 0380 	orr.w	r3, r3, #4194304	; 0x400000
 800186c:	61d3      	str	r3, [r2, #28]
				else if(A_u8Control==DISABLE_PERIPHERAL)	CLR_BIT(RCC->APB1ENR,I2C2EN_BIT);
			break;
 800186e:	e1a1      	b.n	8001bb4 <MRCC_voidControlPeripheralsClock+0x644>
				else if(A_u8Control==DISABLE_PERIPHERAL)	CLR_BIT(RCC->APB1ENR,I2C2EN_BIT);
 8001870:	797b      	ldrb	r3, [r7, #5]
 8001872:	2b00      	cmp	r3, #0
 8001874:	f040 819e 	bne.w	8001bb4 <MRCC_voidControlPeripheralsClock+0x644>
 8001878:	4b03      	ldr	r3, [pc, #12]	; (8001888 <MRCC_voidControlPeripheralsClock+0x318>)
 800187a:	69db      	ldr	r3, [r3, #28]
 800187c:	4a02      	ldr	r2, [pc, #8]	; (8001888 <MRCC_voidControlPeripheralsClock+0x318>)
 800187e:	f423 0380 	bic.w	r3, r3, #4194304	; 0x400000
 8001882:	61d3      	str	r3, [r2, #28]
			break;
 8001884:	e196      	b.n	8001bb4 <MRCC_voidControlPeripheralsClock+0x644>
 8001886:	bf00      	nop
 8001888:	40021000 	.word	0x40021000
			case CAN1:
				if(A_u8Control==ENABLE_PERIPHERAL)			SET_BIT(RCC->APB1ENR,CAN1EN_BIT);
 800188c:	797b      	ldrb	r3, [r7, #5]
 800188e:	2b01      	cmp	r3, #1
 8001890:	d106      	bne.n	80018a0 <MRCC_voidControlPeripheralsClock+0x330>
 8001892:	4ba0      	ldr	r3, [pc, #640]	; (8001b14 <MRCC_voidControlPeripheralsClock+0x5a4>)
 8001894:	69db      	ldr	r3, [r3, #28]
 8001896:	4a9f      	ldr	r2, [pc, #636]	; (8001b14 <MRCC_voidControlPeripheralsClock+0x5a4>)
 8001898:	f043 7300 	orr.w	r3, r3, #33554432	; 0x2000000
 800189c:	61d3      	str	r3, [r2, #28]
				else if(A_u8Control==DISABLE_PERIPHERAL)	CLR_BIT(RCC->APB1ENR,CAN1EN_BIT);
			break;
 800189e:	e18b      	b.n	8001bb8 <MRCC_voidControlPeripheralsClock+0x648>
				else if(A_u8Control==DISABLE_PERIPHERAL)	CLR_BIT(RCC->APB1ENR,CAN1EN_BIT);
 80018a0:	797b      	ldrb	r3, [r7, #5]
 80018a2:	2b00      	cmp	r3, #0
 80018a4:	f040 8188 	bne.w	8001bb8 <MRCC_voidControlPeripheralsClock+0x648>
 80018a8:	4b9a      	ldr	r3, [pc, #616]	; (8001b14 <MRCC_voidControlPeripheralsClock+0x5a4>)
 80018aa:	69db      	ldr	r3, [r3, #28]
 80018ac:	4a99      	ldr	r2, [pc, #612]	; (8001b14 <MRCC_voidControlPeripheralsClock+0x5a4>)
 80018ae:	f023 7300 	bic.w	r3, r3, #33554432	; 0x2000000
 80018b2:	61d3      	str	r3, [r2, #28]
			break;
 80018b4:	e180      	b.n	8001bb8 <MRCC_voidControlPeripheralsClock+0x648>
			case CAN2:
				if(A_u8Control==ENABLE_PERIPHERAL)			SET_BIT(RCC->APB1ENR,CAN2EN_BIT);
 80018b6:	797b      	ldrb	r3, [r7, #5]
 80018b8:	2b01      	cmp	r3, #1
 80018ba:	d106      	bne.n	80018ca <MRCC_voidControlPeripheralsClock+0x35a>
 80018bc:	4b95      	ldr	r3, [pc, #596]	; (8001b14 <MRCC_voidControlPeripheralsClock+0x5a4>)
 80018be:	69db      	ldr	r3, [r3, #28]
 80018c0:	4a94      	ldr	r2, [pc, #592]	; (8001b14 <MRCC_voidControlPeripheralsClock+0x5a4>)
 80018c2:	f043 6380 	orr.w	r3, r3, #67108864	; 0x4000000
 80018c6:	61d3      	str	r3, [r2, #28]
				else if(A_u8Control==DISABLE_PERIPHERAL)	CLR_BIT(RCC->APB1ENR,CAN2EN_BIT);
			break;
 80018c8:	e178      	b.n	8001bbc <MRCC_voidControlPeripheralsClock+0x64c>
				else if(A_u8Control==DISABLE_PERIPHERAL)	CLR_BIT(RCC->APB1ENR,CAN2EN_BIT);
 80018ca:	797b      	ldrb	r3, [r7, #5]
 80018cc:	2b00      	cmp	r3, #0
 80018ce:	f040 8175 	bne.w	8001bbc <MRCC_voidControlPeripheralsClock+0x64c>
 80018d2:	4b90      	ldr	r3, [pc, #576]	; (8001b14 <MRCC_voidControlPeripheralsClock+0x5a4>)
 80018d4:	69db      	ldr	r3, [r3, #28]
 80018d6:	4a8f      	ldr	r2, [pc, #572]	; (8001b14 <MRCC_voidControlPeripheralsClock+0x5a4>)
 80018d8:	f023 6380 	bic.w	r3, r3, #67108864	; 0x4000000
 80018dc:	61d3      	str	r3, [r2, #28]
			break;
 80018de:	e16d      	b.n	8001bbc <MRCC_voidControlPeripheralsClock+0x64c>
			case BKP:
				if(A_u8Control==ENABLE_PERIPHERAL)			SET_BIT(RCC->APB1ENR,BKPEN_BIT);
 80018e0:	797b      	ldrb	r3, [r7, #5]
 80018e2:	2b01      	cmp	r3, #1
 80018e4:	d106      	bne.n	80018f4 <MRCC_voidControlPeripheralsClock+0x384>
 80018e6:	4b8b      	ldr	r3, [pc, #556]	; (8001b14 <MRCC_voidControlPeripheralsClock+0x5a4>)
 80018e8:	69db      	ldr	r3, [r3, #28]
 80018ea:	4a8a      	ldr	r2, [pc, #552]	; (8001b14 <MRCC_voidControlPeripheralsClock+0x5a4>)
 80018ec:	f043 6300 	orr.w	r3, r3, #134217728	; 0x8000000
 80018f0:	61d3      	str	r3, [r2, #28]
				else if(A_u8Control==DISABLE_PERIPHERAL)	CLR_BIT(RCC->APB1ENR,BKPEN_BIT);
			break;
 80018f2:	e165      	b.n	8001bc0 <MRCC_voidControlPeripheralsClock+0x650>
				else if(A_u8Control==DISABLE_PERIPHERAL)	CLR_BIT(RCC->APB1ENR,BKPEN_BIT);
 80018f4:	797b      	ldrb	r3, [r7, #5]
 80018f6:	2b00      	cmp	r3, #0
 80018f8:	f040 8162 	bne.w	8001bc0 <MRCC_voidControlPeripheralsClock+0x650>
 80018fc:	4b85      	ldr	r3, [pc, #532]	; (8001b14 <MRCC_voidControlPeripheralsClock+0x5a4>)
 80018fe:	69db      	ldr	r3, [r3, #28]
 8001900:	4a84      	ldr	r2, [pc, #528]	; (8001b14 <MRCC_voidControlPeripheralsClock+0x5a4>)
 8001902:	f023 6300 	bic.w	r3, r3, #134217728	; 0x8000000
 8001906:	61d3      	str	r3, [r2, #28]
			break;
 8001908:	e15a      	b.n	8001bc0 <MRCC_voidControlPeripheralsClock+0x650>
			case PWR:
				if(A_u8Control==ENABLE_PERIPHERAL)			SET_BIT(RCC->APB1ENR,PWREN_BIT);
 800190a:	797b      	ldrb	r3, [r7, #5]
 800190c:	2b01      	cmp	r3, #1
 800190e:	d106      	bne.n	800191e <MRCC_voidControlPeripheralsClock+0x3ae>
 8001910:	4b80      	ldr	r3, [pc, #512]	; (8001b14 <MRCC_voidControlPeripheralsClock+0x5a4>)
 8001912:	69db      	ldr	r3, [r3, #28]
 8001914:	4a7f      	ldr	r2, [pc, #508]	; (8001b14 <MRCC_voidControlPeripheralsClock+0x5a4>)
 8001916:	f043 5380 	orr.w	r3, r3, #268435456	; 0x10000000
 800191a:	61d3      	str	r3, [r2, #28]
				else if(A_u8Control==DISABLE_PERIPHERAL)	CLR_BIT(RCC->APB1ENR,PWREN_BIT);
			break;
 800191c:	e152      	b.n	8001bc4 <MRCC_voidControlPeripheralsClock+0x654>
				else if(A_u8Control==DISABLE_PERIPHERAL)	CLR_BIT(RCC->APB1ENR,PWREN_BIT);
 800191e:	797b      	ldrb	r3, [r7, #5]
 8001920:	2b00      	cmp	r3, #0
 8001922:	f040 814f 	bne.w	8001bc4 <MRCC_voidControlPeripheralsClock+0x654>
 8001926:	4b7b      	ldr	r3, [pc, #492]	; (8001b14 <MRCC_voidControlPeripheralsClock+0x5a4>)
 8001928:	69db      	ldr	r3, [r3, #28]
 800192a:	4a7a      	ldr	r2, [pc, #488]	; (8001b14 <MRCC_voidControlPeripheralsClock+0x5a4>)
 800192c:	f023 5380 	bic.w	r3, r3, #268435456	; 0x10000000
 8001930:	61d3      	str	r3, [r2, #28]
			break;
 8001932:	e147      	b.n	8001bc4 <MRCC_voidControlPeripheralsClock+0x654>
			case DAC:
				if(A_u8Control==ENABLE_PERIPHERAL)			SET_BIT(RCC->APB1ENR,DACEN_BIT);
 8001934:	797b      	ldrb	r3, [r7, #5]
 8001936:	2b01      	cmp	r3, #1
 8001938:	d106      	bne.n	8001948 <MRCC_voidControlPeripheralsClock+0x3d8>
 800193a:	4b76      	ldr	r3, [pc, #472]	; (8001b14 <MRCC_voidControlPeripheralsClock+0x5a4>)
 800193c:	69db      	ldr	r3, [r3, #28]
 800193e:	4a75      	ldr	r2, [pc, #468]	; (8001b14 <MRCC_voidControlPeripheralsClock+0x5a4>)
 8001940:	f043 5300 	orr.w	r3, r3, #536870912	; 0x20000000
 8001944:	61d3      	str	r3, [r2, #28]
				else if(A_u8Control==DISABLE_PERIPHERAL)	CLR_BIT(RCC->APB1ENR,DACEN_BIT);
			break;
 8001946:	e13f      	b.n	8001bc8 <MRCC_voidControlPeripheralsClock+0x658>
				else if(A_u8Control==DISABLE_PERIPHERAL)	CLR_BIT(RCC->APB1ENR,DACEN_BIT);
 8001948:	797b      	ldrb	r3, [r7, #5]
 800194a:	2b00      	cmp	r3, #0
 800194c:	f040 813c 	bne.w	8001bc8 <MRCC_voidControlPeripheralsClock+0x658>
 8001950:	4b70      	ldr	r3, [pc, #448]	; (8001b14 <MRCC_voidControlPeripheralsClock+0x5a4>)
 8001952:	69db      	ldr	r3, [r3, #28]
 8001954:	4a6f      	ldr	r2, [pc, #444]	; (8001b14 <MRCC_voidControlPeripheralsClock+0x5a4>)
 8001956:	f023 5300 	bic.w	r3, r3, #536870912	; 0x20000000
 800195a:	61d3      	str	r3, [r2, #28]
			break;
 800195c:	e134      	b.n	8001bc8 <MRCC_voidControlPeripheralsClock+0x658>
		}
	}
	else if(A_u8BusID==APB2)
 800195e:	79fb      	ldrb	r3, [r7, #7]
 8001960:	2b01      	cmp	r3, #1
 8001962:	f040 8133 	bne.w	8001bcc <MRCC_voidControlPeripheralsClock+0x65c>
	{
		switch(A_u8PeripheralID)
 8001966:	79bb      	ldrb	r3, [r7, #6]
 8001968:	2b0e      	cmp	r3, #14
 800196a:	f200 8146 	bhi.w	8001bfa <MRCC_voidControlPeripheralsClock+0x68a>
 800196e:	a201      	add	r2, pc, #4	; (adr r2, 8001974 <MRCC_voidControlPeripheralsClock+0x404>)
 8001970:	f852 f023 	ldr.w	pc, [r2, r3, lsl #2]
 8001974:	080019b1 	.word	0x080019b1
 8001978:	08001bfb 	.word	0x08001bfb
 800197c:	080019db 	.word	0x080019db
 8001980:	08001a05 	.word	0x08001a05
 8001984:	08001a2f 	.word	0x08001a2f
 8001988:	08001a59 	.word	0x08001a59
 800198c:	08001a83 	.word	0x08001a83
 8001990:	08001bfb 	.word	0x08001bfb
 8001994:	08001bfb 	.word	0x08001bfb
 8001998:	08001aad 	.word	0x08001aad
 800199c:	08001ad7 	.word	0x08001ad7
 80019a0:	08001aff 	.word	0x08001aff
 80019a4:	08001b2d 	.word	0x08001b2d
 80019a8:	08001bfb 	.word	0x08001bfb
 80019ac:	08001b55 	.word	0x08001b55
		{
			case AFIO:
				if(A_u8Control==ENABLE_PERIPHERAL)			SET_BIT(RCC->APB2ENR,AFIOEN_BIT);
 80019b0:	797b      	ldrb	r3, [r7, #5]
 80019b2:	2b01      	cmp	r3, #1
 80019b4:	d106      	bne.n	80019c4 <MRCC_voidControlPeripheralsClock+0x454>
 80019b6:	4b57      	ldr	r3, [pc, #348]	; (8001b14 <MRCC_voidControlPeripheralsClock+0x5a4>)
 80019b8:	699b      	ldr	r3, [r3, #24]
 80019ba:	4a56      	ldr	r2, [pc, #344]	; (8001b14 <MRCC_voidControlPeripheralsClock+0x5a4>)
 80019bc:	f043 0301 	orr.w	r3, r3, #1
 80019c0:	6193      	str	r3, [r2, #24]
				else if(A_u8Control==DISABLE_PERIPHERAL)	CLR_BIT(RCC->APB2ENR,AFIOEN_BIT);
			break;
 80019c2:	e105      	b.n	8001bd0 <MRCC_voidControlPeripheralsClock+0x660>
				else if(A_u8Control==DISABLE_PERIPHERAL)	CLR_BIT(RCC->APB2ENR,AFIOEN_BIT);
 80019c4:	797b      	ldrb	r3, [r7, #5]
 80019c6:	2b00      	cmp	r3, #0
 80019c8:	f040 8102 	bne.w	8001bd0 <MRCC_voidControlPeripheralsClock+0x660>
 80019cc:	4b51      	ldr	r3, [pc, #324]	; (8001b14 <MRCC_voidControlPeripheralsClock+0x5a4>)
 80019ce:	699b      	ldr	r3, [r3, #24]
 80019d0:	4a50      	ldr	r2, [pc, #320]	; (8001b14 <MRCC_voidControlPeripheralsClock+0x5a4>)
 80019d2:	f023 0301 	bic.w	r3, r3, #1
 80019d6:	6193      	str	r3, [r2, #24]
			break;
 80019d8:	e0fa      	b.n	8001bd0 <MRCC_voidControlPeripheralsClock+0x660>
			case IOPA:
				if(A_u8Control==ENABLE_PERIPHERAL)			SET_BIT(RCC->APB2ENR,IOPAEN_BIT);
 80019da:	797b      	ldrb	r3, [r7, #5]
 80019dc:	2b01      	cmp	r3, #1
 80019de:	d106      	bne.n	80019ee <MRCC_voidControlPeripheralsClock+0x47e>
 80019e0:	4b4c      	ldr	r3, [pc, #304]	; (8001b14 <MRCC_voidControlPeripheralsClock+0x5a4>)
 80019e2:	699b      	ldr	r3, [r3, #24]
 80019e4:	4a4b      	ldr	r2, [pc, #300]	; (8001b14 <MRCC_voidControlPeripheralsClock+0x5a4>)
 80019e6:	f043 0304 	orr.w	r3, r3, #4
 80019ea:	6193      	str	r3, [r2, #24]
				else if(A_u8Control==DISABLE_PERIPHERAL)	CLR_BIT(RCC->APB2ENR,IOPAEN_BIT);
			break;
 80019ec:	e0f2      	b.n	8001bd4 <MRCC_voidControlPeripheralsClock+0x664>
				else if(A_u8Control==DISABLE_PERIPHERAL)	CLR_BIT(RCC->APB2ENR,IOPAEN_BIT);
 80019ee:	797b      	ldrb	r3, [r7, #5]
 80019f0:	2b00      	cmp	r3, #0
 80019f2:	f040 80ef 	bne.w	8001bd4 <MRCC_voidControlPeripheralsClock+0x664>
 80019f6:	4b47      	ldr	r3, [pc, #284]	; (8001b14 <MRCC_voidControlPeripheralsClock+0x5a4>)
 80019f8:	699b      	ldr	r3, [r3, #24]
 80019fa:	4a46      	ldr	r2, [pc, #280]	; (8001b14 <MRCC_voidControlPeripheralsClock+0x5a4>)
 80019fc:	f023 0304 	bic.w	r3, r3, #4
 8001a00:	6193      	str	r3, [r2, #24]
			break;
 8001a02:	e0e7      	b.n	8001bd4 <MRCC_voidControlPeripheralsClock+0x664>
			case IOPB:
				if(A_u8Control==ENABLE_PERIPHERAL)			SET_BIT(RCC->APB2ENR,IOPBEN_BIT);
 8001a04:	797b      	ldrb	r3, [r7, #5]
 8001a06:	2b01      	cmp	r3, #1
 8001a08:	d106      	bne.n	8001a18 <MRCC_voidControlPeripheralsClock+0x4a8>
 8001a0a:	4b42      	ldr	r3, [pc, #264]	; (8001b14 <MRCC_voidControlPeripheralsClock+0x5a4>)
 8001a0c:	699b      	ldr	r3, [r3, #24]
 8001a0e:	4a41      	ldr	r2, [pc, #260]	; (8001b14 <MRCC_voidControlPeripheralsClock+0x5a4>)
 8001a10:	f043 0308 	orr.w	r3, r3, #8
 8001a14:	6193      	str	r3, [r2, #24]
				else if(A_u8Control==DISABLE_PERIPHERAL)	CLR_BIT(RCC->APB2ENR,IOPBEN_BIT);
			break;
 8001a16:	e0df      	b.n	8001bd8 <MRCC_voidControlPeripheralsClock+0x668>
				else if(A_u8Control==DISABLE_PERIPHERAL)	CLR_BIT(RCC->APB2ENR,IOPBEN_BIT);
 8001a18:	797b      	ldrb	r3, [r7, #5]
 8001a1a:	2b00      	cmp	r3, #0
 8001a1c:	f040 80dc 	bne.w	8001bd8 <MRCC_voidControlPeripheralsClock+0x668>
 8001a20:	4b3c      	ldr	r3, [pc, #240]	; (8001b14 <MRCC_voidControlPeripheralsClock+0x5a4>)
 8001a22:	699b      	ldr	r3, [r3, #24]
 8001a24:	4a3b      	ldr	r2, [pc, #236]	; (8001b14 <MRCC_voidControlPeripheralsClock+0x5a4>)
 8001a26:	f023 0308 	bic.w	r3, r3, #8
 8001a2a:	6193      	str	r3, [r2, #24]
			break;
 8001a2c:	e0d4      	b.n	8001bd8 <MRCC_voidControlPeripheralsClock+0x668>
			case IOPC:
				if(A_u8Control==ENABLE_PERIPHERAL)			SET_BIT(RCC->APB2ENR,IOPCEN_BIT);
 8001a2e:	797b      	ldrb	r3, [r7, #5]
 8001a30:	2b01      	cmp	r3, #1
 8001a32:	d106      	bne.n	8001a42 <MRCC_voidControlPeripheralsClock+0x4d2>
 8001a34:	4b37      	ldr	r3, [pc, #220]	; (8001b14 <MRCC_voidControlPeripheralsClock+0x5a4>)
 8001a36:	699b      	ldr	r3, [r3, #24]
 8001a38:	4a36      	ldr	r2, [pc, #216]	; (8001b14 <MRCC_voidControlPeripheralsClock+0x5a4>)
 8001a3a:	f043 0310 	orr.w	r3, r3, #16
 8001a3e:	6193      	str	r3, [r2, #24]
				else if(A_u8Control==DISABLE_PERIPHERAL)	CLR_BIT(RCC->APB2ENR,IOPCEN_BIT);
			break;
 8001a40:	e0cc      	b.n	8001bdc <MRCC_voidControlPeripheralsClock+0x66c>
				else if(A_u8Control==DISABLE_PERIPHERAL)	CLR_BIT(RCC->APB2ENR,IOPCEN_BIT);
 8001a42:	797b      	ldrb	r3, [r7, #5]
 8001a44:	2b00      	cmp	r3, #0
 8001a46:	f040 80c9 	bne.w	8001bdc <MRCC_voidControlPeripheralsClock+0x66c>
 8001a4a:	4b32      	ldr	r3, [pc, #200]	; (8001b14 <MRCC_voidControlPeripheralsClock+0x5a4>)
 8001a4c:	699b      	ldr	r3, [r3, #24]
 8001a4e:	4a31      	ldr	r2, [pc, #196]	; (8001b14 <MRCC_voidControlPeripheralsClock+0x5a4>)
 8001a50:	f023 0310 	bic.w	r3, r3, #16
 8001a54:	6193      	str	r3, [r2, #24]
			break;
 8001a56:	e0c1      	b.n	8001bdc <MRCC_voidControlPeripheralsClock+0x66c>
			case IOPD:
				if(A_u8Control==ENABLE_PERIPHERAL)			SET_BIT(RCC->APB2ENR,IOPDEN_BIT);
 8001a58:	797b      	ldrb	r3, [r7, #5]
 8001a5a:	2b01      	cmp	r3, #1
 8001a5c:	d106      	bne.n	8001a6c <MRCC_voidControlPeripheralsClock+0x4fc>
 8001a5e:	4b2d      	ldr	r3, [pc, #180]	; (8001b14 <MRCC_voidControlPeripheralsClock+0x5a4>)
 8001a60:	699b      	ldr	r3, [r3, #24]
 8001a62:	4a2c      	ldr	r2, [pc, #176]	; (8001b14 <MRCC_voidControlPeripheralsClock+0x5a4>)
 8001a64:	f043 0320 	orr.w	r3, r3, #32
 8001a68:	6193      	str	r3, [r2, #24]
				else if(A_u8Control==DISABLE_PERIPHERAL)	CLR_BIT(RCC->APB2ENR,IOPDEN_BIT);
			break;
 8001a6a:	e0b9      	b.n	8001be0 <MRCC_voidControlPeripheralsClock+0x670>
				else if(A_u8Control==DISABLE_PERIPHERAL)	CLR_BIT(RCC->APB2ENR,IOPDEN_BIT);
 8001a6c:	797b      	ldrb	r3, [r7, #5]
 8001a6e:	2b00      	cmp	r3, #0
 8001a70:	f040 80b6 	bne.w	8001be0 <MRCC_voidControlPeripheralsClock+0x670>
 8001a74:	4b27      	ldr	r3, [pc, #156]	; (8001b14 <MRCC_voidControlPeripheralsClock+0x5a4>)
 8001a76:	699b      	ldr	r3, [r3, #24]
 8001a78:	4a26      	ldr	r2, [pc, #152]	; (8001b14 <MRCC_voidControlPeripheralsClock+0x5a4>)
 8001a7a:	f023 0320 	bic.w	r3, r3, #32
 8001a7e:	6193      	str	r3, [r2, #24]
			break;
 8001a80:	e0ae      	b.n	8001be0 <MRCC_voidControlPeripheralsClock+0x670>
			case IOPE:
				if(A_u8Control==ENABLE_PERIPHERAL)			SET_BIT(RCC->APB2ENR,IOPEEN_BIT);
 8001a82:	797b      	ldrb	r3, [r7, #5]
 8001a84:	2b01      	cmp	r3, #1
 8001a86:	d106      	bne.n	8001a96 <MRCC_voidControlPeripheralsClock+0x526>
 8001a88:	4b22      	ldr	r3, [pc, #136]	; (8001b14 <MRCC_voidControlPeripheralsClock+0x5a4>)
 8001a8a:	699b      	ldr	r3, [r3, #24]
 8001a8c:	4a21      	ldr	r2, [pc, #132]	; (8001b14 <MRCC_voidControlPeripheralsClock+0x5a4>)
 8001a8e:	f043 0340 	orr.w	r3, r3, #64	; 0x40
 8001a92:	6193      	str	r3, [r2, #24]
				else if(A_u8Control==DISABLE_PERIPHERAL)	CLR_BIT(RCC->APB2ENR,IOPEEN_BIT);
			break;
 8001a94:	e0a6      	b.n	8001be4 <MRCC_voidControlPeripheralsClock+0x674>
				else if(A_u8Control==DISABLE_PERIPHERAL)	CLR_BIT(RCC->APB2ENR,IOPEEN_BIT);
 8001a96:	797b      	ldrb	r3, [r7, #5]
 8001a98:	2b00      	cmp	r3, #0
 8001a9a:	f040 80a3 	bne.w	8001be4 <MRCC_voidControlPeripheralsClock+0x674>
 8001a9e:	4b1d      	ldr	r3, [pc, #116]	; (8001b14 <MRCC_voidControlPeripheralsClock+0x5a4>)
 8001aa0:	699b      	ldr	r3, [r3, #24]
 8001aa2:	4a1c      	ldr	r2, [pc, #112]	; (8001b14 <MRCC_voidControlPeripheralsClock+0x5a4>)
 8001aa4:	f023 0340 	bic.w	r3, r3, #64	; 0x40
 8001aa8:	6193      	str	r3, [r2, #24]
			break;
 8001aaa:	e09b      	b.n	8001be4 <MRCC_voidControlPeripheralsClock+0x674>
			case ADC1:
				if(A_u8Control==ENABLE_PERIPHERAL)			SET_BIT(RCC->APB2ENR,ADC1EN_BIT);
 8001aac:	797b      	ldrb	r3, [r7, #5]
 8001aae:	2b01      	cmp	r3, #1
 8001ab0:	d106      	bne.n	8001ac0 <MRCC_voidControlPeripheralsClock+0x550>
 8001ab2:	4b18      	ldr	r3, [pc, #96]	; (8001b14 <MRCC_voidControlPeripheralsClock+0x5a4>)
 8001ab4:	699b      	ldr	r3, [r3, #24]
 8001ab6:	4a17      	ldr	r2, [pc, #92]	; (8001b14 <MRCC_voidControlPeripheralsClock+0x5a4>)
 8001ab8:	f443 7300 	orr.w	r3, r3, #512	; 0x200
 8001abc:	6193      	str	r3, [r2, #24]
				else if(A_u8Control==DISABLE_PERIPHERAL)	CLR_BIT(RCC->APB2ENR,ADC1EN_BIT);
			break;
 8001abe:	e093      	b.n	8001be8 <MRCC_voidControlPeripheralsClock+0x678>
				else if(A_u8Control==DISABLE_PERIPHERAL)	CLR_BIT(RCC->APB2ENR,ADC1EN_BIT);
 8001ac0:	797b      	ldrb	r3, [r7, #5]
 8001ac2:	2b00      	cmp	r3, #0
 8001ac4:	f040 8090 	bne.w	8001be8 <MRCC_voidControlPeripheralsClock+0x678>
 8001ac8:	4b12      	ldr	r3, [pc, #72]	; (8001b14 <MRCC_voidControlPeripheralsClock+0x5a4>)
 8001aca:	699b      	ldr	r3, [r3, #24]
 8001acc:	4a11      	ldr	r2, [pc, #68]	; (8001b14 <MRCC_voidControlPeripheralsClock+0x5a4>)
 8001ace:	f423 7300 	bic.w	r3, r3, #512	; 0x200
 8001ad2:	6193      	str	r3, [r2, #24]
			break;
 8001ad4:	e088      	b.n	8001be8 <MRCC_voidControlPeripheralsClock+0x678>
			case ADC2:
				if(A_u8Control==ENABLE_PERIPHERAL)			SET_BIT(RCC->APB2ENR,ADC2EN_BIT);
 8001ad6:	797b      	ldrb	r3, [r7, #5]
 8001ad8:	2b01      	cmp	r3, #1
 8001ada:	d106      	bne.n	8001aea <MRCC_voidControlPeripheralsClock+0x57a>
 8001adc:	4b0d      	ldr	r3, [pc, #52]	; (8001b14 <MRCC_voidControlPeripheralsClock+0x5a4>)
 8001ade:	699b      	ldr	r3, [r3, #24]
 8001ae0:	4a0c      	ldr	r2, [pc, #48]	; (8001b14 <MRCC_voidControlPeripheralsClock+0x5a4>)
 8001ae2:	f443 6380 	orr.w	r3, r3, #1024	; 0x400
 8001ae6:	6193      	str	r3, [r2, #24]
				else if(A_u8Control==DISABLE_PERIPHERAL)	CLR_BIT(RCC->APB2ENR,ADC2EN_BIT);
			break;
 8001ae8:	e080      	b.n	8001bec <MRCC_voidControlPeripheralsClock+0x67c>
				else if(A_u8Control==DISABLE_PERIPHERAL)	CLR_BIT(RCC->APB2ENR,ADC2EN_BIT);
 8001aea:	797b      	ldrb	r3, [r7, #5]
 8001aec:	2b00      	cmp	r3, #0
 8001aee:	d17d      	bne.n	8001bec <MRCC_voidControlPeripheralsClock+0x67c>
 8001af0:	4b08      	ldr	r3, [pc, #32]	; (8001b14 <MRCC_voidControlPeripheralsClock+0x5a4>)
 8001af2:	699b      	ldr	r3, [r3, #24]
 8001af4:	4a07      	ldr	r2, [pc, #28]	; (8001b14 <MRCC_voidControlPeripheralsClock+0x5a4>)
 8001af6:	f423 6380 	bic.w	r3, r3, #1024	; 0x400
 8001afa:	6193      	str	r3, [r2, #24]
			break;
 8001afc:	e076      	b.n	8001bec <MRCC_voidControlPeripheralsClock+0x67c>
			case TIM1:
				if(A_u8Control==ENABLE_PERIPHERAL)			SET_BIT(RCC->APB2ENR,TIM1EN_BIT);
 8001afe:	797b      	ldrb	r3, [r7, #5]
 8001b00:	2b01      	cmp	r3, #1
 8001b02:	d109      	bne.n	8001b18 <MRCC_voidControlPeripheralsClock+0x5a8>
 8001b04:	4b03      	ldr	r3, [pc, #12]	; (8001b14 <MRCC_voidControlPeripheralsClock+0x5a4>)
 8001b06:	699b      	ldr	r3, [r3, #24]
 8001b08:	4a02      	ldr	r2, [pc, #8]	; (8001b14 <MRCC_voidControlPeripheralsClock+0x5a4>)
 8001b0a:	f443 6300 	orr.w	r3, r3, #2048	; 0x800
 8001b0e:	6193      	str	r3, [r2, #24]
				else if(A_u8Control==DISABLE_PERIPHERAL)	CLR_BIT(RCC->APB2ENR,TIM1EN_BIT);
			break;
 8001b10:	e06e      	b.n	8001bf0 <MRCC_voidControlPeripheralsClock+0x680>
 8001b12:	bf00      	nop
 8001b14:	40021000 	.word	0x40021000
				else if(A_u8Control==DISABLE_PERIPHERAL)	CLR_BIT(RCC->APB2ENR,TIM1EN_BIT);
 8001b18:	797b      	ldrb	r3, [r7, #5]
 8001b1a:	2b00      	cmp	r3, #0
 8001b1c:	d168      	bne.n	8001bf0 <MRCC_voidControlPeripheralsClock+0x680>
 8001b1e:	4b39      	ldr	r3, [pc, #228]	; (8001c04 <MRCC_voidControlPeripheralsClock+0x694>)
 8001b20:	699b      	ldr	r3, [r3, #24]
 8001b22:	4a38      	ldr	r2, [pc, #224]	; (8001c04 <MRCC_voidControlPeripheralsClock+0x694>)
 8001b24:	f423 6300 	bic.w	r3, r3, #2048	; 0x800
 8001b28:	6193      	str	r3, [r2, #24]
			break;
 8001b2a:	e061      	b.n	8001bf0 <MRCC_voidControlPeripheralsClock+0x680>
			case SPI1:
				if(A_u8Control==ENABLE_PERIPHERAL)			SET_BIT(RCC->APB2ENR,SPI1EN_BIT);
 8001b2c:	797b      	ldrb	r3, [r7, #5]
 8001b2e:	2b01      	cmp	r3, #1
 8001b30:	d106      	bne.n	8001b40 <MRCC_voidControlPeripheralsClock+0x5d0>
 8001b32:	4b34      	ldr	r3, [pc, #208]	; (8001c04 <MRCC_voidControlPeripheralsClock+0x694>)
 8001b34:	699b      	ldr	r3, [r3, #24]
 8001b36:	4a33      	ldr	r2, [pc, #204]	; (8001c04 <MRCC_voidControlPeripheralsClock+0x694>)
 8001b38:	f443 5380 	orr.w	r3, r3, #4096	; 0x1000
 8001b3c:	6193      	str	r3, [r2, #24]
				else if(A_u8Control==DISABLE_PERIPHERAL)	CLR_BIT(RCC->APB2ENR,SPI1EN_BIT);
			break;
 8001b3e:	e059      	b.n	8001bf4 <MRCC_voidControlPeripheralsClock+0x684>
				else if(A_u8Control==DISABLE_PERIPHERAL)	CLR_BIT(RCC->APB2ENR,SPI1EN_BIT);
 8001b40:	797b      	ldrb	r3, [r7, #5]
 8001b42:	2b00      	cmp	r3, #0
 8001b44:	d156      	bne.n	8001bf4 <MRCC_voidControlPeripheralsClock+0x684>
 8001b46:	4b2f      	ldr	r3, [pc, #188]	; (8001c04 <MRCC_voidControlPeripheralsClock+0x694>)
 8001b48:	699b      	ldr	r3, [r3, #24]
 8001b4a:	4a2e      	ldr	r2, [pc, #184]	; (8001c04 <MRCC_voidControlPeripheralsClock+0x694>)
 8001b4c:	f423 5380 	bic.w	r3, r3, #4096	; 0x1000
 8001b50:	6193      	str	r3, [r2, #24]
			break;
 8001b52:	e04f      	b.n	8001bf4 <MRCC_voidControlPeripheralsClock+0x684>
			case USART1:
				if(A_u8Control==ENABLE_PERIPHERAL)			SET_BIT(RCC->APB2ENR,USART1EN_BIT);
 8001b54:	797b      	ldrb	r3, [r7, #5]
 8001b56:	2b01      	cmp	r3, #1
 8001b58:	d106      	bne.n	8001b68 <MRCC_voidControlPeripheralsClock+0x5f8>
 8001b5a:	4b2a      	ldr	r3, [pc, #168]	; (8001c04 <MRCC_voidControlPeripheralsClock+0x694>)
 8001b5c:	699b      	ldr	r3, [r3, #24]
 8001b5e:	4a29      	ldr	r2, [pc, #164]	; (8001c04 <MRCC_voidControlPeripheralsClock+0x694>)
 8001b60:	f443 4380 	orr.w	r3, r3, #16384	; 0x4000
 8001b64:	6193      	str	r3, [r2, #24]
				else if(A_u8Control==DISABLE_PERIPHERAL)	CLR_BIT(RCC->APB2ENR,USART1EN_BIT);
			break;
 8001b66:	e047      	b.n	8001bf8 <MRCC_voidControlPeripheralsClock+0x688>
				else if(A_u8Control==DISABLE_PERIPHERAL)	CLR_BIT(RCC->APB2ENR,USART1EN_BIT);
 8001b68:	797b      	ldrb	r3, [r7, #5]
 8001b6a:	2b00      	cmp	r3, #0
 8001b6c:	d144      	bne.n	8001bf8 <MRCC_voidControlPeripheralsClock+0x688>
 8001b6e:	4b25      	ldr	r3, [pc, #148]	; (8001c04 <MRCC_voidControlPeripheralsClock+0x694>)
 8001b70:	699b      	ldr	r3, [r3, #24]
 8001b72:	4a24      	ldr	r2, [pc, #144]	; (8001c04 <MRCC_voidControlPeripheralsClock+0x694>)
 8001b74:	f423 4380 	bic.w	r3, r3, #16384	; 0x4000
 8001b78:	6193      	str	r3, [r2, #24]
			break;
 8001b7a:	e03d      	b.n	8001bf8 <MRCC_voidControlPeripheralsClock+0x688>
			break;
 8001b7c:	bf00      	nop
 8001b7e:	e03c      	b.n	8001bfa <MRCC_voidControlPeripheralsClock+0x68a>
			break;
 8001b80:	bf00      	nop
 8001b82:	e03a      	b.n	8001bfa <MRCC_voidControlPeripheralsClock+0x68a>
			break;
 8001b84:	bf00      	nop
 8001b86:	e038      	b.n	8001bfa <MRCC_voidControlPeripheralsClock+0x68a>
			break;
 8001b88:	bf00      	nop
 8001b8a:	e036      	b.n	8001bfa <MRCC_voidControlPeripheralsClock+0x68a>
			break;
 8001b8c:	bf00      	nop
 8001b8e:	e034      	b.n	8001bfa <MRCC_voidControlPeripheralsClock+0x68a>
			break;
 8001b90:	bf00      	nop
 8001b92:	e032      	b.n	8001bfa <MRCC_voidControlPeripheralsClock+0x68a>
			break;
 8001b94:	bf00      	nop
 8001b96:	e030      	b.n	8001bfa <MRCC_voidControlPeripheralsClock+0x68a>
			break;
 8001b98:	bf00      	nop
 8001b9a:	e02e      	b.n	8001bfa <MRCC_voidControlPeripheralsClock+0x68a>
			break;
 8001b9c:	bf00      	nop
 8001b9e:	e02c      	b.n	8001bfa <MRCC_voidControlPeripheralsClock+0x68a>
			break;
 8001ba0:	bf00      	nop
 8001ba2:	e02a      	b.n	8001bfa <MRCC_voidControlPeripheralsClock+0x68a>
			break;
 8001ba4:	bf00      	nop
 8001ba6:	e028      	b.n	8001bfa <MRCC_voidControlPeripheralsClock+0x68a>
			break;
 8001ba8:	bf00      	nop
 8001baa:	e026      	b.n	8001bfa <MRCC_voidControlPeripheralsClock+0x68a>
			break;
 8001bac:	bf00      	nop
 8001bae:	e024      	b.n	8001bfa <MRCC_voidControlPeripheralsClock+0x68a>
			break;
 8001bb0:	bf00      	nop
 8001bb2:	e022      	b.n	8001bfa <MRCC_voidControlPeripheralsClock+0x68a>
			break;
 8001bb4:	bf00      	nop
 8001bb6:	e020      	b.n	8001bfa <MRCC_voidControlPeripheralsClock+0x68a>
			break;
 8001bb8:	bf00      	nop
 8001bba:	e01e      	b.n	8001bfa <MRCC_voidControlPeripheralsClock+0x68a>
			break;
 8001bbc:	bf00      	nop
 8001bbe:	e01c      	b.n	8001bfa <MRCC_voidControlPeripheralsClock+0x68a>
			break;
 8001bc0:	bf00      	nop
 8001bc2:	e01a      	b.n	8001bfa <MRCC_voidControlPeripheralsClock+0x68a>
			break;
 8001bc4:	bf00      	nop
 8001bc6:	e018      	b.n	8001bfa <MRCC_voidControlPeripheralsClock+0x68a>
			break;
 8001bc8:	bf00      	nop
 8001bca:	e016      	b.n	8001bfa <MRCC_voidControlPeripheralsClock+0x68a>
		}
	}
 8001bcc:	bf00      	nop
 8001bce:	e014      	b.n	8001bfa <MRCC_voidControlPeripheralsClock+0x68a>
			break;
 8001bd0:	bf00      	nop
 8001bd2:	e012      	b.n	8001bfa <MRCC_voidControlPeripheralsClock+0x68a>
			break;
 8001bd4:	bf00      	nop
 8001bd6:	e010      	b.n	8001bfa <MRCC_voidControlPeripheralsClock+0x68a>
			break;
 8001bd8:	bf00      	nop
 8001bda:	e00e      	b.n	8001bfa <MRCC_voidControlPeripheralsClock+0x68a>
			break;
 8001bdc:	bf00      	nop
 8001bde:	e00c      	b.n	8001bfa <MRCC_voidControlPeripheralsClock+0x68a>
			break;
 8001be0:	bf00      	nop
 8001be2:	e00a      	b.n	8001bfa <MRCC_voidControlPeripheralsClock+0x68a>
			break;
 8001be4:	bf00      	nop
 8001be6:	e008      	b.n	8001bfa <MRCC_voidControlPeripheralsClock+0x68a>
			break;
 8001be8:	bf00      	nop
 8001bea:	e006      	b.n	8001bfa <MRCC_voidControlPeripheralsClock+0x68a>
			break;
 8001bec:	bf00      	nop
 8001bee:	e004      	b.n	8001bfa <MRCC_voidControlPeripheralsClock+0x68a>
			break;
 8001bf0:	bf00      	nop
 8001bf2:	e002      	b.n	8001bfa <MRCC_voidControlPeripheralsClock+0x68a>
			break;
 8001bf4:	bf00      	nop
 8001bf6:	e000      	b.n	8001bfa <MRCC_voidControlPeripheralsClock+0x68a>
			break;
 8001bf8:	bf00      	nop
}
 8001bfa:	bf00      	nop
 8001bfc:	370c      	adds	r7, #12
 8001bfe:	46bd      	mov	sp, r7
 8001c00:	bc80      	pop	{r7}
 8001c02:	4770      	bx	lr
 8001c04:	40021000 	.word	0x40021000

08001c08 <MSTK_voidInit>:

static void (* SysTick_CallBack)(void)=NULL;
static u8 MSTK_u8ModeOfInterval = MSTK_SINGLE_INTERVAL;

void MSTK_voidInit(void)
{
 8001c08:	b480      	push	{r7}
 8001c0a:	af00      	add	r7, sp, #0
#if MSTK_CLOCK_SOURCE == MSTK_SRC_AHB
STK->CTRL = 0x00000004;
#elif MSTK_CLOCK_SOURCE == MSTK_SRC_AHB_8
STK->CTRL = 0x00000000;
 8001c0c:	4b03      	ldr	r3, [pc, #12]	; (8001c1c <MSTK_voidInit+0x14>)
 8001c0e:	2200      	movs	r2, #0
 8001c10:	601a      	str	r2, [r3, #0]
#else
#error "Wrong Clock Source Prescaler"
#endif
}
 8001c12:	bf00      	nop
 8001c14:	46bd      	mov	sp, r7
 8001c16:	bc80      	pop	{r7}
 8001c18:	4770      	bx	lr
 8001c1a:	bf00      	nop
 8001c1c:	e000e010 	.word	0xe000e010

08001c20 <MSTK_voidSetBusyWait>:
void MSTK_voidSetBusyWait(u32 copy_u32Ticks) //delay
{
 8001c20:	b480      	push	{r7}
 8001c22:	b083      	sub	sp, #12
 8001c24:	af00      	add	r7, sp, #0
 8001c26:	6078      	str	r0, [r7, #4]
	/*load ticks to load register*/
	STK->LOAD = copy_u32Ticks;
 8001c28:	4a11      	ldr	r2, [pc, #68]	; (8001c70 <MSTK_voidSetBusyWait+0x50>)
 8001c2a:	687b      	ldr	r3, [r7, #4]
 8001c2c:	6053      	str	r3, [r2, #4]
	/*Start Timer*/
	SET_BIT(STK->CTRL,0);
 8001c2e:	4b10      	ldr	r3, [pc, #64]	; (8001c70 <MSTK_voidSetBusyWait+0x50>)
 8001c30:	681b      	ldr	r3, [r3, #0]
 8001c32:	4a0f      	ldr	r2, [pc, #60]	; (8001c70 <MSTK_voidSetBusyWait+0x50>)
 8001c34:	f043 0301 	orr.w	r3, r3, #1
 8001c38:	6013      	str	r3, [r2, #0]
	/*wait till flag is raised*/
	while((GET_BIT(STK->CTRL,16))==0)
 8001c3a:	e000      	b.n	8001c3e <MSTK_voidSetBusyWait+0x1e>
	{
		asm("NOP");
 8001c3c:	bf00      	nop
	while((GET_BIT(STK->CTRL,16))==0)
 8001c3e:	4b0c      	ldr	r3, [pc, #48]	; (8001c70 <MSTK_voidSetBusyWait+0x50>)
 8001c40:	681b      	ldr	r3, [r3, #0]
 8001c42:	0c1b      	lsrs	r3, r3, #16
 8001c44:	f003 0301 	and.w	r3, r3, #1
 8001c48:	2b00      	cmp	r3, #0
 8001c4a:	d0f7      	beq.n	8001c3c <MSTK_voidSetBusyWait+0x1c>
	}
	/*stop timer*/
	CLR_BIT(STK->CTRL,0);
 8001c4c:	4b08      	ldr	r3, [pc, #32]	; (8001c70 <MSTK_voidSetBusyWait+0x50>)
 8001c4e:	681b      	ldr	r3, [r3, #0]
 8001c50:	4a07      	ldr	r2, [pc, #28]	; (8001c70 <MSTK_voidSetBusyWait+0x50>)
 8001c52:	f023 0301 	bic.w	r3, r3, #1
 8001c56:	6013      	str	r3, [r2, #0]
	/*Re initialization of LOAD and VAL*/
	STK->LOAD=0;
 8001c58:	4b05      	ldr	r3, [pc, #20]	; (8001c70 <MSTK_voidSetBusyWait+0x50>)
 8001c5a:	2200      	movs	r2, #0
 8001c5c:	605a      	str	r2, [r3, #4]
	STK->VAL=0;
 8001c5e:	4b04      	ldr	r3, [pc, #16]	; (8001c70 <MSTK_voidSetBusyWait+0x50>)
 8001c60:	2200      	movs	r2, #0
 8001c62:	609a      	str	r2, [r3, #8]
}
 8001c64:	bf00      	nop
 8001c66:	370c      	adds	r7, #12
 8001c68:	46bd      	mov	sp, r7
 8001c6a:	bc80      	pop	{r7}
 8001c6c:	4770      	bx	lr
 8001c6e:	bf00      	nop
 8001c70:	e000e010 	.word	0xe000e010

08001c74 <SysTick_Handler>:
	u32 Local_u32RemainingTime;
	Local_u32RemainingTime = (STK->VAL);
	return Local_u32RemainingTime;
}
void SysTick_Handler(void)
{
 8001c74:	b580      	push	{r7, lr}
 8001c76:	af00      	add	r7, sp, #0
	//u8 Local_u8Temp;
	/*if single*/
	if(MSTK_u8ModeOfInterval==MSTK_SINGLE_INTERVAL)
 8001c78:	4b0d      	ldr	r3, [pc, #52]	; (8001cb0 <SysTick_Handler+0x3c>)
 8001c7a:	781b      	ldrb	r3, [r3, #0]
 8001c7c:	2b00      	cmp	r3, #0
 8001c7e:	d111      	bne.n	8001ca4 <SysTick_Handler+0x30>
	{
		/*disable interrupt*/
		CLR_BIT(STK->CTRL,1);
 8001c80:	4b0c      	ldr	r3, [pc, #48]	; (8001cb4 <SysTick_Handler+0x40>)
 8001c82:	681b      	ldr	r3, [r3, #0]
 8001c84:	4a0b      	ldr	r2, [pc, #44]	; (8001cb4 <SysTick_Handler+0x40>)
 8001c86:	f023 0302 	bic.w	r3, r3, #2
 8001c8a:	6013      	str	r3, [r2, #0]
		/*stop timer*/
		CLR_BIT(STK->CTRL,0);
 8001c8c:	4b09      	ldr	r3, [pc, #36]	; (8001cb4 <SysTick_Handler+0x40>)
 8001c8e:	681b      	ldr	r3, [r3, #0]
 8001c90:	4a08      	ldr	r2, [pc, #32]	; (8001cb4 <SysTick_Handler+0x40>)
 8001c92:	f023 0301 	bic.w	r3, r3, #1
 8001c96:	6013      	str	r3, [r2, #0]
		/*Re initialization of LOAD and VAL*/
		STK->LOAD=0;
 8001c98:	4b06      	ldr	r3, [pc, #24]	; (8001cb4 <SysTick_Handler+0x40>)
 8001c9a:	2200      	movs	r2, #0
 8001c9c:	605a      	str	r2, [r3, #4]
		STK->VAL=0;
 8001c9e:	4b05      	ldr	r3, [pc, #20]	; (8001cb4 <SysTick_Handler+0x40>)
 8001ca0:	2200      	movs	r2, #0
 8001ca2:	609a      	str	r2, [r3, #8]
	}
	/*call back*/
	SysTick_CallBack();
 8001ca4:	4b04      	ldr	r3, [pc, #16]	; (8001cb8 <SysTick_Handler+0x44>)
 8001ca6:	681b      	ldr	r3, [r3, #0]
 8001ca8:	4798      	blx	r3
	/*clear interrupt flag by reading it*/
	//Local_u8Temp=(GET_BIT(STK->CTRL,16));
}
 8001caa:	bf00      	nop
 8001cac:	bd80      	pop	{r7, pc}
 8001cae:	bf00      	nop
 8001cb0:	2000003c 	.word	0x2000003c
 8001cb4:	e000e010 	.word	0xe000e010
 8001cb8:	20000038 	.word	0x20000038
 8001cbc:	00000000 	.word	0x00000000

08001cc0 <MUART_voidInit>:
static void (* UART2_CallBack)(void)=NULL;
static void (* UART3_CallBack)(void)=NULL;


void MUART_voidInit(UART_Config_t *copy_UARTNum)
{
 8001cc0:	b580      	push	{r7, lr}
 8001cc2:	b084      	sub	sp, #16
 8001cc4:	af00      	add	r7, sp, #0
 8001cc6:	6078      	str	r0, [r7, #4]
	f32 USARTDIVFactor=(FCLK/(16.0*(copy_UARTNum->UART_BaudRate)));
 8001cc8:	687b      	ldr	r3, [r7, #4]
 8001cca:	69db      	ldr	r3, [r3, #28]
 8001ccc:	4618      	mov	r0, r3
 8001cce:	f7fe fc35 	bl	800053c <__aeabi_ui2d>
 8001cd2:	f04f 0200 	mov.w	r2, #0
 8001cd6:	4b1e      	ldr	r3, [pc, #120]	; (8001d50 <MUART_voidInit+0x90>)
 8001cd8:	f7fe fcaa 	bl	8000630 <__aeabi_dmul>
 8001cdc:	4602      	mov	r2, r0
 8001cde:	460b      	mov	r3, r1
 8001ce0:	a119      	add	r1, pc, #100	; (adr r1, 8001d48 <MUART_voidInit+0x88>)
 8001ce2:	e9d1 0100 	ldrd	r0, r1, [r1]
 8001ce6:	f7fe fdcd 	bl	8000884 <__aeabi_ddiv>
 8001cea:	4602      	mov	r2, r0
 8001cec:	460b      	mov	r3, r1
 8001cee:	4610      	mov	r0, r2
 8001cf0:	4619      	mov	r1, r3
 8001cf2:	f7fe feaf 	bl	8000a54 <__aeabi_d2f>
 8001cf6:	4603      	mov	r3, r0
 8001cf8:	60bb      	str	r3, [r7, #8]
	u8 Mantissa = (u8) USARTDIVFactor;
 8001cfa:	68b8      	ldr	r0, [r7, #8]
 8001cfc:	f7ff f87e 	bl	8000dfc <__aeabi_f2uiz>
 8001d00:	4603      	mov	r3, r0
 8001d02:	73fb      	strb	r3, [r7, #15]
	u8 DIV_Fraction = 0;
 8001d04:	2300      	movs	r3, #0
 8001d06:	73bb      	strb	r3, [r7, #14]
	USARTDIVFactor-=Mantissa;
 8001d08:	7bfb      	ldrb	r3, [r7, #15]
 8001d0a:	4618      	mov	r0, r3
 8001d0c:	f7fe ffac 	bl	8000c68 <__aeabi_i2f>
 8001d10:	4603      	mov	r3, r0
 8001d12:	4619      	mov	r1, r3
 8001d14:	68b8      	ldr	r0, [r7, #8]
 8001d16:	f7fe fef1 	bl	8000afc <__aeabi_fsub>
 8001d1a:	4603      	mov	r3, r0
 8001d1c:	60bb      	str	r3, [r7, #8]
	USARTDIVFactor*=16;
 8001d1e:	f04f 4183 	mov.w	r1, #1098907648	; 0x41800000
 8001d22:	68b8      	ldr	r0, [r7, #8]
 8001d24:	f7fe fa14 	bl	8000150 <__aeabi_fmul>
 8001d28:	4603      	mov	r3, r0
 8001d2a:	60bb      	str	r3, [r7, #8]
	if(USARTDIVFactor>15)
 8001d2c:	4909      	ldr	r1, [pc, #36]	; (8001d54 <MUART_voidInit+0x94>)
 8001d2e:	68b8      	ldr	r0, [r7, #8]
 8001d30:	f7ff f85a 	bl	8000de8 <__aeabi_fcmpgt>
 8001d34:	4603      	mov	r3, r0
 8001d36:	2b00      	cmp	r3, #0
 8001d38:	d00e      	beq.n	8001d58 <MUART_voidInit+0x98>
	{
		DIV_Fraction=0;
 8001d3a:	2300      	movs	r3, #0
 8001d3c:	73bb      	strb	r3, [r7, #14]
		Mantissa++;
 8001d3e:	7bfb      	ldrb	r3, [r7, #15]
 8001d40:	3301      	adds	r3, #1
 8001d42:	73fb      	strb	r3, [r7, #15]
 8001d44:	e00d      	b.n	8001d62 <MUART_voidInit+0xa2>
 8001d46:	bf00      	nop
 8001d48:	00000000 	.word	0x00000000
 8001d4c:	415e8480 	.word	0x415e8480
 8001d50:	40300000 	.word	0x40300000
 8001d54:	41700000 	.word	0x41700000
	}
	else
	{
		DIV_Fraction = (u8) USARTDIVFactor;
 8001d58:	68b8      	ldr	r0, [r7, #8]
 8001d5a:	f7ff f84f 	bl	8000dfc <__aeabi_f2uiz>
 8001d5e:	4603      	mov	r3, r0
 8001d60:	73bb      	strb	r3, [r7, #14]
	}
	/*Baudrate*/
	UART[copy_UARTNum->UART_NUM]->BRR=0;
 8001d62:	687b      	ldr	r3, [r7, #4]
 8001d64:	781b      	ldrb	r3, [r3, #0]
 8001d66:	461a      	mov	r2, r3
 8001d68:	4ba1      	ldr	r3, [pc, #644]	; (8001ff0 <MUART_voidInit+0x330>)
 8001d6a:	f853 3022 	ldr.w	r3, [r3, r2, lsl #2]
 8001d6e:	2200      	movs	r2, #0
 8001d70:	609a      	str	r2, [r3, #8]
	UART[copy_UARTNum->UART_NUM]->BRR|=DIV_Fraction;
 8001d72:	687b      	ldr	r3, [r7, #4]
 8001d74:	781b      	ldrb	r3, [r3, #0]
 8001d76:	461a      	mov	r2, r3
 8001d78:	4b9d      	ldr	r3, [pc, #628]	; (8001ff0 <MUART_voidInit+0x330>)
 8001d7a:	f853 3022 	ldr.w	r3, [r3, r2, lsl #2]
 8001d7e:	6899      	ldr	r1, [r3, #8]
 8001d80:	7bba      	ldrb	r2, [r7, #14]
 8001d82:	687b      	ldr	r3, [r7, #4]
 8001d84:	781b      	ldrb	r3, [r3, #0]
 8001d86:	4618      	mov	r0, r3
 8001d88:	4b99      	ldr	r3, [pc, #612]	; (8001ff0 <MUART_voidInit+0x330>)
 8001d8a:	f853 3020 	ldr.w	r3, [r3, r0, lsl #2]
 8001d8e:	430a      	orrs	r2, r1
 8001d90:	609a      	str	r2, [r3, #8]
	UART[copy_UARTNum->UART_NUM]->BRR|=(Mantissa<<4);
 8001d92:	687b      	ldr	r3, [r7, #4]
 8001d94:	781b      	ldrb	r3, [r3, #0]
 8001d96:	461a      	mov	r2, r3
 8001d98:	4b95      	ldr	r3, [pc, #596]	; (8001ff0 <MUART_voidInit+0x330>)
 8001d9a:	f853 3022 	ldr.w	r3, [r3, r2, lsl #2]
 8001d9e:	689a      	ldr	r2, [r3, #8]
 8001da0:	7bfb      	ldrb	r3, [r7, #15]
 8001da2:	011b      	lsls	r3, r3, #4
 8001da4:	4619      	mov	r1, r3
 8001da6:	687b      	ldr	r3, [r7, #4]
 8001da8:	781b      	ldrb	r3, [r3, #0]
 8001daa:	4618      	mov	r0, r3
 8001dac:	4b90      	ldr	r3, [pc, #576]	; (8001ff0 <MUART_voidInit+0x330>)
 8001dae:	f853 3020 	ldr.w	r3, [r3, r0, lsl #2]
 8001db2:	430a      	orrs	r2, r1
 8001db4:	609a      	str	r2, [r3, #8]
	/*Configuration*/
	UART[copy_UARTNum->UART_NUM]->CR[0]=0;
 8001db6:	687b      	ldr	r3, [r7, #4]
 8001db8:	781b      	ldrb	r3, [r3, #0]
 8001dba:	461a      	mov	r2, r3
 8001dbc:	4b8c      	ldr	r3, [pc, #560]	; (8001ff0 <MUART_voidInit+0x330>)
 8001dbe:	f853 3022 	ldr.w	r3, [r3, r2, lsl #2]
 8001dc2:	2200      	movs	r2, #0
 8001dc4:	60da      	str	r2, [r3, #12]
	UART[copy_UARTNum->UART_NUM]->CR[0]|=(copy_UARTNum->UART_SBK);
 8001dc6:	687b      	ldr	r3, [r7, #4]
 8001dc8:	781b      	ldrb	r3, [r3, #0]
 8001dca:	461a      	mov	r2, r3
 8001dcc:	4b88      	ldr	r3, [pc, #544]	; (8001ff0 <MUART_voidInit+0x330>)
 8001dce:	f853 3022 	ldr.w	r3, [r3, r2, lsl #2]
 8001dd2:	68da      	ldr	r2, [r3, #12]
 8001dd4:	687b      	ldr	r3, [r7, #4]
 8001dd6:	7b9b      	ldrb	r3, [r3, #14]
 8001dd8:	4619      	mov	r1, r3
 8001dda:	687b      	ldr	r3, [r7, #4]
 8001ddc:	781b      	ldrb	r3, [r3, #0]
 8001dde:	4618      	mov	r0, r3
 8001de0:	4b83      	ldr	r3, [pc, #524]	; (8001ff0 <MUART_voidInit+0x330>)
 8001de2:	f853 3020 	ldr.w	r3, [r3, r0, lsl #2]
 8001de6:	430a      	orrs	r2, r1
 8001de8:	60da      	str	r2, [r3, #12]
	UART[copy_UARTNum->UART_NUM]->CR[0]|=((copy_UARTNum->UART_RWU)<<1);
 8001dea:	687b      	ldr	r3, [r7, #4]
 8001dec:	781b      	ldrb	r3, [r3, #0]
 8001dee:	461a      	mov	r2, r3
 8001df0:	4b7f      	ldr	r3, [pc, #508]	; (8001ff0 <MUART_voidInit+0x330>)
 8001df2:	f853 3022 	ldr.w	r3, [r3, r2, lsl #2]
 8001df6:	68da      	ldr	r2, [r3, #12]
 8001df8:	687b      	ldr	r3, [r7, #4]
 8001dfa:	7b5b      	ldrb	r3, [r3, #13]
 8001dfc:	005b      	lsls	r3, r3, #1
 8001dfe:	4619      	mov	r1, r3
 8001e00:	687b      	ldr	r3, [r7, #4]
 8001e02:	781b      	ldrb	r3, [r3, #0]
 8001e04:	4618      	mov	r0, r3
 8001e06:	4b7a      	ldr	r3, [pc, #488]	; (8001ff0 <MUART_voidInit+0x330>)
 8001e08:	f853 3020 	ldr.w	r3, [r3, r0, lsl #2]
 8001e0c:	430a      	orrs	r2, r1
 8001e0e:	60da      	str	r2, [r3, #12]
	UART[copy_UARTNum->UART_NUM]->CR[0]|=((copy_UARTNum->UART_RE)<<2);
 8001e10:	687b      	ldr	r3, [r7, #4]
 8001e12:	781b      	ldrb	r3, [r3, #0]
 8001e14:	461a      	mov	r2, r3
 8001e16:	4b76      	ldr	r3, [pc, #472]	; (8001ff0 <MUART_voidInit+0x330>)
 8001e18:	f853 3022 	ldr.w	r3, [r3, r2, lsl #2]
 8001e1c:	68da      	ldr	r2, [r3, #12]
 8001e1e:	687b      	ldr	r3, [r7, #4]
 8001e20:	7b1b      	ldrb	r3, [r3, #12]
 8001e22:	009b      	lsls	r3, r3, #2
 8001e24:	4619      	mov	r1, r3
 8001e26:	687b      	ldr	r3, [r7, #4]
 8001e28:	781b      	ldrb	r3, [r3, #0]
 8001e2a:	4618      	mov	r0, r3
 8001e2c:	4b70      	ldr	r3, [pc, #448]	; (8001ff0 <MUART_voidInit+0x330>)
 8001e2e:	f853 3020 	ldr.w	r3, [r3, r0, lsl #2]
 8001e32:	430a      	orrs	r2, r1
 8001e34:	60da      	str	r2, [r3, #12]
	UART[copy_UARTNum->UART_NUM]->CR[0]|=((copy_UARTNum->UART_TE)<<3);
 8001e36:	687b      	ldr	r3, [r7, #4]
 8001e38:	781b      	ldrb	r3, [r3, #0]
 8001e3a:	461a      	mov	r2, r3
 8001e3c:	4b6c      	ldr	r3, [pc, #432]	; (8001ff0 <MUART_voidInit+0x330>)
 8001e3e:	f853 3022 	ldr.w	r3, [r3, r2, lsl #2]
 8001e42:	68da      	ldr	r2, [r3, #12]
 8001e44:	687b      	ldr	r3, [r7, #4]
 8001e46:	7adb      	ldrb	r3, [r3, #11]
 8001e48:	00db      	lsls	r3, r3, #3
 8001e4a:	4619      	mov	r1, r3
 8001e4c:	687b      	ldr	r3, [r7, #4]
 8001e4e:	781b      	ldrb	r3, [r3, #0]
 8001e50:	4618      	mov	r0, r3
 8001e52:	4b67      	ldr	r3, [pc, #412]	; (8001ff0 <MUART_voidInit+0x330>)
 8001e54:	f853 3020 	ldr.w	r3, [r3, r0, lsl #2]
 8001e58:	430a      	orrs	r2, r1
 8001e5a:	60da      	str	r2, [r3, #12]
	UART[copy_UARTNum->UART_NUM]->CR[0]|=((copy_UARTNum->UART_IDLEIE)<<4);
 8001e5c:	687b      	ldr	r3, [r7, #4]
 8001e5e:	781b      	ldrb	r3, [r3, #0]
 8001e60:	461a      	mov	r2, r3
 8001e62:	4b63      	ldr	r3, [pc, #396]	; (8001ff0 <MUART_voidInit+0x330>)
 8001e64:	f853 3022 	ldr.w	r3, [r3, r2, lsl #2]
 8001e68:	68da      	ldr	r2, [r3, #12]
 8001e6a:	687b      	ldr	r3, [r7, #4]
 8001e6c:	7a9b      	ldrb	r3, [r3, #10]
 8001e6e:	011b      	lsls	r3, r3, #4
 8001e70:	4619      	mov	r1, r3
 8001e72:	687b      	ldr	r3, [r7, #4]
 8001e74:	781b      	ldrb	r3, [r3, #0]
 8001e76:	4618      	mov	r0, r3
 8001e78:	4b5d      	ldr	r3, [pc, #372]	; (8001ff0 <MUART_voidInit+0x330>)
 8001e7a:	f853 3020 	ldr.w	r3, [r3, r0, lsl #2]
 8001e7e:	430a      	orrs	r2, r1
 8001e80:	60da      	str	r2, [r3, #12]
	UART[copy_UARTNum->UART_NUM]->CR[0]|=((copy_UARTNum->UART_RXNEIE)<<5);
 8001e82:	687b      	ldr	r3, [r7, #4]
 8001e84:	781b      	ldrb	r3, [r3, #0]
 8001e86:	461a      	mov	r2, r3
 8001e88:	4b59      	ldr	r3, [pc, #356]	; (8001ff0 <MUART_voidInit+0x330>)
 8001e8a:	f853 3022 	ldr.w	r3, [r3, r2, lsl #2]
 8001e8e:	68da      	ldr	r2, [r3, #12]
 8001e90:	687b      	ldr	r3, [r7, #4]
 8001e92:	7a5b      	ldrb	r3, [r3, #9]
 8001e94:	015b      	lsls	r3, r3, #5
 8001e96:	4619      	mov	r1, r3
 8001e98:	687b      	ldr	r3, [r7, #4]
 8001e9a:	781b      	ldrb	r3, [r3, #0]
 8001e9c:	4618      	mov	r0, r3
 8001e9e:	4b54      	ldr	r3, [pc, #336]	; (8001ff0 <MUART_voidInit+0x330>)
 8001ea0:	f853 3020 	ldr.w	r3, [r3, r0, lsl #2]
 8001ea4:	430a      	orrs	r2, r1
 8001ea6:	60da      	str	r2, [r3, #12]
	UART[copy_UARTNum->UART_NUM]->CR[0]|=((copy_UARTNum->UART_TCIE)<<6);
 8001ea8:	687b      	ldr	r3, [r7, #4]
 8001eaa:	781b      	ldrb	r3, [r3, #0]
 8001eac:	461a      	mov	r2, r3
 8001eae:	4b50      	ldr	r3, [pc, #320]	; (8001ff0 <MUART_voidInit+0x330>)
 8001eb0:	f853 3022 	ldr.w	r3, [r3, r2, lsl #2]
 8001eb4:	68da      	ldr	r2, [r3, #12]
 8001eb6:	687b      	ldr	r3, [r7, #4]
 8001eb8:	7a1b      	ldrb	r3, [r3, #8]
 8001eba:	019b      	lsls	r3, r3, #6
 8001ebc:	4619      	mov	r1, r3
 8001ebe:	687b      	ldr	r3, [r7, #4]
 8001ec0:	781b      	ldrb	r3, [r3, #0]
 8001ec2:	4618      	mov	r0, r3
 8001ec4:	4b4a      	ldr	r3, [pc, #296]	; (8001ff0 <MUART_voidInit+0x330>)
 8001ec6:	f853 3020 	ldr.w	r3, [r3, r0, lsl #2]
 8001eca:	430a      	orrs	r2, r1
 8001ecc:	60da      	str	r2, [r3, #12]
	UART[copy_UARTNum->UART_NUM]->CR[0]|=((copy_UARTNum->UART_TXEIE)<<7);
 8001ece:	687b      	ldr	r3, [r7, #4]
 8001ed0:	781b      	ldrb	r3, [r3, #0]
 8001ed2:	461a      	mov	r2, r3
 8001ed4:	4b46      	ldr	r3, [pc, #280]	; (8001ff0 <MUART_voidInit+0x330>)
 8001ed6:	f853 3022 	ldr.w	r3, [r3, r2, lsl #2]
 8001eda:	68da      	ldr	r2, [r3, #12]
 8001edc:	687b      	ldr	r3, [r7, #4]
 8001ede:	79db      	ldrb	r3, [r3, #7]
 8001ee0:	01db      	lsls	r3, r3, #7
 8001ee2:	4619      	mov	r1, r3
 8001ee4:	687b      	ldr	r3, [r7, #4]
 8001ee6:	781b      	ldrb	r3, [r3, #0]
 8001ee8:	4618      	mov	r0, r3
 8001eea:	4b41      	ldr	r3, [pc, #260]	; (8001ff0 <MUART_voidInit+0x330>)
 8001eec:	f853 3020 	ldr.w	r3, [r3, r0, lsl #2]
 8001ef0:	430a      	orrs	r2, r1
 8001ef2:	60da      	str	r2, [r3, #12]
	UART[copy_UARTNum->UART_NUM]->CR[0]|=((copy_UARTNum->UART_PEIE)<<8);
 8001ef4:	687b      	ldr	r3, [r7, #4]
 8001ef6:	781b      	ldrb	r3, [r3, #0]
 8001ef8:	461a      	mov	r2, r3
 8001efa:	4b3d      	ldr	r3, [pc, #244]	; (8001ff0 <MUART_voidInit+0x330>)
 8001efc:	f853 3022 	ldr.w	r3, [r3, r2, lsl #2]
 8001f00:	68da      	ldr	r2, [r3, #12]
 8001f02:	687b      	ldr	r3, [r7, #4]
 8001f04:	799b      	ldrb	r3, [r3, #6]
 8001f06:	021b      	lsls	r3, r3, #8
 8001f08:	4619      	mov	r1, r3
 8001f0a:	687b      	ldr	r3, [r7, #4]
 8001f0c:	781b      	ldrb	r3, [r3, #0]
 8001f0e:	4618      	mov	r0, r3
 8001f10:	4b37      	ldr	r3, [pc, #220]	; (8001ff0 <MUART_voidInit+0x330>)
 8001f12:	f853 3020 	ldr.w	r3, [r3, r0, lsl #2]
 8001f16:	430a      	orrs	r2, r1
 8001f18:	60da      	str	r2, [r3, #12]
	UART[copy_UARTNum->UART_NUM]->CR[0]|=((copy_UARTNum->UART_PARITY_SELECTION)<<9);
 8001f1a:	687b      	ldr	r3, [r7, #4]
 8001f1c:	781b      	ldrb	r3, [r3, #0]
 8001f1e:	461a      	mov	r2, r3
 8001f20:	4b33      	ldr	r3, [pc, #204]	; (8001ff0 <MUART_voidInit+0x330>)
 8001f22:	f853 3022 	ldr.w	r3, [r3, r2, lsl #2]
 8001f26:	68da      	ldr	r2, [r3, #12]
 8001f28:	687b      	ldr	r3, [r7, #4]
 8001f2a:	795b      	ldrb	r3, [r3, #5]
 8001f2c:	025b      	lsls	r3, r3, #9
 8001f2e:	4619      	mov	r1, r3
 8001f30:	687b      	ldr	r3, [r7, #4]
 8001f32:	781b      	ldrb	r3, [r3, #0]
 8001f34:	4618      	mov	r0, r3
 8001f36:	4b2e      	ldr	r3, [pc, #184]	; (8001ff0 <MUART_voidInit+0x330>)
 8001f38:	f853 3020 	ldr.w	r3, [r3, r0, lsl #2]
 8001f3c:	430a      	orrs	r2, r1
 8001f3e:	60da      	str	r2, [r3, #12]
	UART[copy_UARTNum->UART_NUM]->CR[0]|=((copy_UARTNum->UART_PARITY_CONTROL_ENABLE)<<10);
 8001f40:	687b      	ldr	r3, [r7, #4]
 8001f42:	781b      	ldrb	r3, [r3, #0]
 8001f44:	461a      	mov	r2, r3
 8001f46:	4b2a      	ldr	r3, [pc, #168]	; (8001ff0 <MUART_voidInit+0x330>)
 8001f48:	f853 3022 	ldr.w	r3, [r3, r2, lsl #2]
 8001f4c:	68da      	ldr	r2, [r3, #12]
 8001f4e:	687b      	ldr	r3, [r7, #4]
 8001f50:	791b      	ldrb	r3, [r3, #4]
 8001f52:	029b      	lsls	r3, r3, #10
 8001f54:	4619      	mov	r1, r3
 8001f56:	687b      	ldr	r3, [r7, #4]
 8001f58:	781b      	ldrb	r3, [r3, #0]
 8001f5a:	4618      	mov	r0, r3
 8001f5c:	4b24      	ldr	r3, [pc, #144]	; (8001ff0 <MUART_voidInit+0x330>)
 8001f5e:	f853 3020 	ldr.w	r3, [r3, r0, lsl #2]
 8001f62:	430a      	orrs	r2, r1
 8001f64:	60da      	str	r2, [r3, #12]
	UART[copy_UARTNum->UART_NUM]->CR[0]|=((copy_UARTNum->UART_WAKEUP)<<11);
 8001f66:	687b      	ldr	r3, [r7, #4]
 8001f68:	781b      	ldrb	r3, [r3, #0]
 8001f6a:	461a      	mov	r2, r3
 8001f6c:	4b20      	ldr	r3, [pc, #128]	; (8001ff0 <MUART_voidInit+0x330>)
 8001f6e:	f853 3022 	ldr.w	r3, [r3, r2, lsl #2]
 8001f72:	68da      	ldr	r2, [r3, #12]
 8001f74:	687b      	ldr	r3, [r7, #4]
 8001f76:	78db      	ldrb	r3, [r3, #3]
 8001f78:	02db      	lsls	r3, r3, #11
 8001f7a:	4619      	mov	r1, r3
 8001f7c:	687b      	ldr	r3, [r7, #4]
 8001f7e:	781b      	ldrb	r3, [r3, #0]
 8001f80:	4618      	mov	r0, r3
 8001f82:	4b1b      	ldr	r3, [pc, #108]	; (8001ff0 <MUART_voidInit+0x330>)
 8001f84:	f853 3020 	ldr.w	r3, [r3, r0, lsl #2]
 8001f88:	430a      	orrs	r2, r1
 8001f8a:	60da      	str	r2, [r3, #12]
	UART[copy_UARTNum->UART_NUM]->CR[0]|=((copy_UARTNum->UART_WORD_LENGTH)<<12);
 8001f8c:	687b      	ldr	r3, [r7, #4]
 8001f8e:	781b      	ldrb	r3, [r3, #0]
 8001f90:	461a      	mov	r2, r3
 8001f92:	4b17      	ldr	r3, [pc, #92]	; (8001ff0 <MUART_voidInit+0x330>)
 8001f94:	f853 3022 	ldr.w	r3, [r3, r2, lsl #2]
 8001f98:	68da      	ldr	r2, [r3, #12]
 8001f9a:	687b      	ldr	r3, [r7, #4]
 8001f9c:	789b      	ldrb	r3, [r3, #2]
 8001f9e:	031b      	lsls	r3, r3, #12
 8001fa0:	4619      	mov	r1, r3
 8001fa2:	687b      	ldr	r3, [r7, #4]
 8001fa4:	781b      	ldrb	r3, [r3, #0]
 8001fa6:	4618      	mov	r0, r3
 8001fa8:	4b11      	ldr	r3, [pc, #68]	; (8001ff0 <MUART_voidInit+0x330>)
 8001faa:	f853 3020 	ldr.w	r3, [r3, r0, lsl #2]
 8001fae:	430a      	orrs	r2, r1
 8001fb0:	60da      	str	r2, [r3, #12]
	UART[copy_UARTNum->UART_NUM]->CR[0]|=((copy_UARTNum->UART_ENABLE_STATE)<<13);
 8001fb2:	687b      	ldr	r3, [r7, #4]
 8001fb4:	781b      	ldrb	r3, [r3, #0]
 8001fb6:	461a      	mov	r2, r3
 8001fb8:	4b0d      	ldr	r3, [pc, #52]	; (8001ff0 <MUART_voidInit+0x330>)
 8001fba:	f853 3022 	ldr.w	r3, [r3, r2, lsl #2]
 8001fbe:	68da      	ldr	r2, [r3, #12]
 8001fc0:	687b      	ldr	r3, [r7, #4]
 8001fc2:	785b      	ldrb	r3, [r3, #1]
 8001fc4:	035b      	lsls	r3, r3, #13
 8001fc6:	4619      	mov	r1, r3
 8001fc8:	687b      	ldr	r3, [r7, #4]
 8001fca:	781b      	ldrb	r3, [r3, #0]
 8001fcc:	4618      	mov	r0, r3
 8001fce:	4b08      	ldr	r3, [pc, #32]	; (8001ff0 <MUART_voidInit+0x330>)
 8001fd0:	f853 3020 	ldr.w	r3, [r3, r0, lsl #2]
 8001fd4:	430a      	orrs	r2, r1
 8001fd6:	60da      	str	r2, [r3, #12]
	/*Clear status reg*/
	UART[copy_UARTNum->UART_NUM]->SR=0;
 8001fd8:	687b      	ldr	r3, [r7, #4]
 8001fda:	781b      	ldrb	r3, [r3, #0]
 8001fdc:	461a      	mov	r2, r3
 8001fde:	4b04      	ldr	r3, [pc, #16]	; (8001ff0 <MUART_voidInit+0x330>)
 8001fe0:	f853 3022 	ldr.w	r3, [r3, r2, lsl #2]
 8001fe4:	2200      	movs	r2, #0
 8001fe6:	601a      	str	r2, [r3, #0]
}
 8001fe8:	bf00      	nop
 8001fea:	3710      	adds	r7, #16
 8001fec:	46bd      	mov	sp, r7
 8001fee:	bd80      	pop	{r7, pc}
 8001ff0:	20000000 	.word	0x20000000

08001ff4 <MUART_voidTransmitSync>:
	UART[copy_UARTNum->UART_NUM]->DR=data;
	while(GET_BIT(UART[copy_UARTNum->UART_NUM]->SR,6)==0);
}

void MUART_voidTransmitSync(UART_Config_t *copy_UARTNum, u8 arr[])
{
 8001ff4:	b480      	push	{r7}
 8001ff6:	b085      	sub	sp, #20
 8001ff8:	af00      	add	r7, sp, #0
 8001ffa:	6078      	str	r0, [r7, #4]
 8001ffc:	6039      	str	r1, [r7, #0]
	u8 i = 0;
 8001ffe:	2300      	movs	r3, #0
 8002000:	73fb      	strb	r3, [r7, #15]
	while(arr[i]!='\0')
 8002002:	e01a      	b.n	800203a <MUART_voidTransmitSync+0x46>
	{
		UART[copy_UARTNum->UART_NUM]->DR=arr[i];
 8002004:	7bfb      	ldrb	r3, [r7, #15]
 8002006:	683a      	ldr	r2, [r7, #0]
 8002008:	4413      	add	r3, r2
 800200a:	781a      	ldrb	r2, [r3, #0]
 800200c:	687b      	ldr	r3, [r7, #4]
 800200e:	781b      	ldrb	r3, [r3, #0]
 8002010:	4619      	mov	r1, r3
 8002012:	4b10      	ldr	r3, [pc, #64]	; (8002054 <MUART_voidTransmitSync+0x60>)
 8002014:	f853 3021 	ldr.w	r3, [r3, r1, lsl #2]
 8002018:	605a      	str	r2, [r3, #4]
		while(GET_BIT(UART[copy_UARTNum->UART_NUM]->SR,6)==0);
 800201a:	bf00      	nop
 800201c:	687b      	ldr	r3, [r7, #4]
 800201e:	781b      	ldrb	r3, [r3, #0]
 8002020:	461a      	mov	r2, r3
 8002022:	4b0c      	ldr	r3, [pc, #48]	; (8002054 <MUART_voidTransmitSync+0x60>)
 8002024:	f853 3022 	ldr.w	r3, [r3, r2, lsl #2]
 8002028:	681b      	ldr	r3, [r3, #0]
 800202a:	099b      	lsrs	r3, r3, #6
 800202c:	f003 0301 	and.w	r3, r3, #1
 8002030:	2b00      	cmp	r3, #0
 8002032:	d0f3      	beq.n	800201c <MUART_voidTransmitSync+0x28>
		i++;
 8002034:	7bfb      	ldrb	r3, [r7, #15]
 8002036:	3301      	adds	r3, #1
 8002038:	73fb      	strb	r3, [r7, #15]
	while(arr[i]!='\0')
 800203a:	7bfb      	ldrb	r3, [r7, #15]
 800203c:	683a      	ldr	r2, [r7, #0]
 800203e:	4413      	add	r3, r2
 8002040:	781b      	ldrb	r3, [r3, #0]
 8002042:	2b00      	cmp	r3, #0
 8002044:	d1de      	bne.n	8002004 <MUART_voidTransmitSync+0x10>
	}
}
 8002046:	bf00      	nop
 8002048:	bf00      	nop
 800204a:	3714      	adds	r7, #20
 800204c:	46bd      	mov	sp, r7
 800204e:	bc80      	pop	{r7}
 8002050:	4770      	bx	lr
 8002052:	bf00      	nop
 8002054:	20000000 	.word	0x20000000

08002058 <USART1_IRQHandler>:
	{
		UART1_CallBack  = 	ptr ;
	}
}
void USART1_IRQHandler(void)
{
 8002058:	b580      	push	{r7, lr}
 800205a:	af00      	add	r7, sp, #0
	UART1_CallBack();
 800205c:	4b02      	ldr	r3, [pc, #8]	; (8002068 <USART1_IRQHandler+0x10>)
 800205e:	681b      	ldr	r3, [r3, #0]
 8002060:	4798      	blx	r3
}
 8002062:	bf00      	nop
 8002064:	bd80      	pop	{r7, pc}
 8002066:	bf00      	nop
 8002068:	20000040 	.word	0x20000040

0800206c <MUART2_voidSetCallBack>:
void MUART2_voidSetCallBack	(void (*ptr) (void))
{
 800206c:	b480      	push	{r7}
 800206e:	b083      	sub	sp, #12
 8002070:	af00      	add	r7, sp, #0
 8002072:	6078      	str	r0, [r7, #4]
	if(ptr != NULL)
 8002074:	687b      	ldr	r3, [r7, #4]
 8002076:	2b00      	cmp	r3, #0
 8002078:	d002      	beq.n	8002080 <MUART2_voidSetCallBack+0x14>
	{
		UART2_CallBack  = 	ptr ;
 800207a:	4a04      	ldr	r2, [pc, #16]	; (800208c <MUART2_voidSetCallBack+0x20>)
 800207c:	687b      	ldr	r3, [r7, #4]
 800207e:	6013      	str	r3, [r2, #0]
	}
}
 8002080:	bf00      	nop
 8002082:	370c      	adds	r7, #12
 8002084:	46bd      	mov	sp, r7
 8002086:	bc80      	pop	{r7}
 8002088:	4770      	bx	lr
 800208a:	bf00      	nop
 800208c:	20000044 	.word	0x20000044

08002090 <USART2_IRQHandler>:
void USART2_IRQHandler(void)
{
 8002090:	b580      	push	{r7, lr}
 8002092:	af00      	add	r7, sp, #0
	UART2_CallBack();
 8002094:	4b02      	ldr	r3, [pc, #8]	; (80020a0 <USART2_IRQHandler+0x10>)
 8002096:	681b      	ldr	r3, [r3, #0]
 8002098:	4798      	blx	r3
}
 800209a:	bf00      	nop
 800209c:	bd80      	pop	{r7, pc}
 800209e:	bf00      	nop
 80020a0:	20000044 	.word	0x20000044

080020a4 <MUART3_voidSetCallBack>:
void MUART3_voidSetCallBack	(void (*ptr) (void))
{
 80020a4:	b480      	push	{r7}
 80020a6:	b083      	sub	sp, #12
 80020a8:	af00      	add	r7, sp, #0
 80020aa:	6078      	str	r0, [r7, #4]
	if(ptr != NULL)
 80020ac:	687b      	ldr	r3, [r7, #4]
 80020ae:	2b00      	cmp	r3, #0
 80020b0:	d002      	beq.n	80020b8 <MUART3_voidSetCallBack+0x14>
	{
		UART3_CallBack  = 	ptr ;
 80020b2:	4a04      	ldr	r2, [pc, #16]	; (80020c4 <MUART3_voidSetCallBack+0x20>)
 80020b4:	687b      	ldr	r3, [r7, #4]
 80020b6:	6013      	str	r3, [r2, #0]
	}
}
 80020b8:	bf00      	nop
 80020ba:	370c      	adds	r7, #12
 80020bc:	46bd      	mov	sp, r7
 80020be:	bc80      	pop	{r7}
 80020c0:	4770      	bx	lr
 80020c2:	bf00      	nop
 80020c4:	20000048 	.word	0x20000048

080020c8 <USART3_IRQHandler>:
void USART3_IRQHandler(void)
{
 80020c8:	b580      	push	{r7, lr}
 80020ca:	af00      	add	r7, sp, #0
	UART3_CallBack();
 80020cc:	4b02      	ldr	r3, [pc, #8]	; (80020d8 <USART3_IRQHandler+0x10>)
 80020ce:	681b      	ldr	r3, [r3, #0]
 80020d0:	4798      	blx	r3
}
 80020d2:	bf00      	nop
 80020d4:	bd80      	pop	{r7, pc}
 80020d6:	bf00      	nop
 80020d8:	20000048 	.word	0x20000048

080020dc <MUART2_u8ReadDR>:
u8 MUART1_u8ReadDR()
{
	return UART[0]->DR;
}
u8 MUART2_u8ReadDR()
{
 80020dc:	b480      	push	{r7}
 80020de:	af00      	add	r7, sp, #0
	return UART[1]->DR;
 80020e0:	4b03      	ldr	r3, [pc, #12]	; (80020f0 <MUART2_u8ReadDR+0x14>)
 80020e2:	685b      	ldr	r3, [r3, #4]
 80020e4:	685b      	ldr	r3, [r3, #4]
 80020e6:	b2db      	uxtb	r3, r3
}
 80020e8:	4618      	mov	r0, r3
 80020ea:	46bd      	mov	sp, r7
 80020ec:	bc80      	pop	{r7}
 80020ee:	4770      	bx	lr
 80020f0:	20000000 	.word	0x20000000

080020f4 <MUART3_u8ReadDR>:
u8 MUART3_u8ReadDR()
{
 80020f4:	b480      	push	{r7}
 80020f6:	af00      	add	r7, sp, #0
	return UART[2]->DR;
 80020f8:	4b03      	ldr	r3, [pc, #12]	; (8002108 <MUART3_u8ReadDR+0x14>)
 80020fa:	689b      	ldr	r3, [r3, #8]
 80020fc:	685b      	ldr	r3, [r3, #4]
 80020fe:	b2db      	uxtb	r3, r3
}
 8002100:	4618      	mov	r0, r3
 8002102:	46bd      	mov	sp, r7
 8002104:	bc80      	pop	{r7}
 8002106:	4770      	bx	lr
 8002108:	20000000 	.word	0x20000000

0800210c <main>:
u8 first_time_voice_flag = 1;
u8 first_time_joystick_flag = 1;
u8 first_time_remote_flag = 1;

int main(void)
{
 800210c:	b580      	push	{r7, lr}
 800210e:	af00      	add	r7, sp, #0
	Init();
 8002110:	f000 fa6c 	bl	80025ec <Init>
	while(1)
	{
		if(MDIO_u8GetPinValue(GPIO_U8_PORTA, GPIO_U8_PIN11)==0)
 8002114:	210b      	movs	r1, #11
 8002116:	2000      	movs	r0, #0
 8002118:	f7ff f83e 	bl	8001198 <MDIO_u8GetPinValue>
 800211c:	4603      	mov	r3, r0
 800211e:	2b00      	cmp	r3, #0
 8002120:	d120      	bne.n	8002164 <main+0x58>
		{
			if(first_time_none_flag==1)
 8002122:	4bb2      	ldr	r3, [pc, #712]	; (80023ec <main+0x2e0>)
 8002124:	781b      	ldrb	r3, [r3, #0]
 8002126:	2b01      	cmp	r3, #1
 8002128:	d118      	bne.n	800215c <main+0x50>
			{
				WheelChair_Stop();
 800212a:	f000 fcd7 	bl	8002adc <WheelChair_Stop>
				MUART_voidTransmitSync(&Debug, (u8* ) "None\r\n");
 800212e:	49b0      	ldr	r1, [pc, #704]	; (80023f0 <main+0x2e4>)
 8002130:	48b0      	ldr	r0, [pc, #704]	; (80023f4 <main+0x2e8>)
 8002132:	f7ff ff5f 	bl	8001ff4 <MUART_voidTransmitSync>
				MUART_voidTransmitSync(&Raspberry, (u8* ) "None\r");
 8002136:	49b0      	ldr	r1, [pc, #704]	; (80023f8 <main+0x2ec>)
 8002138:	48b0      	ldr	r0, [pc, #704]	; (80023fc <main+0x2f0>)
 800213a:	f7ff ff5b 	bl	8001ff4 <MUART_voidTransmitSync>
				first_time_none_flag = 0;
 800213e:	4bab      	ldr	r3, [pc, #684]	; (80023ec <main+0x2e0>)
 8002140:	2200      	movs	r2, #0
 8002142:	701a      	strb	r2, [r3, #0]
				first_time_eye_flag = 1;
 8002144:	4bae      	ldr	r3, [pc, #696]	; (8002400 <main+0x2f4>)
 8002146:	2201      	movs	r2, #1
 8002148:	701a      	strb	r2, [r3, #0]
				first_time_voice_flag = 1;
 800214a:	4bae      	ldr	r3, [pc, #696]	; (8002404 <main+0x2f8>)
 800214c:	2201      	movs	r2, #1
 800214e:	701a      	strb	r2, [r3, #0]
				first_time_joystick_flag = 1;
 8002150:	4bad      	ldr	r3, [pc, #692]	; (8002408 <main+0x2fc>)
 8002152:	2201      	movs	r2, #1
 8002154:	701a      	strb	r2, [r3, #0]
				first_time_remote_flag = 1;
 8002156:	4bad      	ldr	r3, [pc, #692]	; (800240c <main+0x300>)
 8002158:	2201      	movs	r2, #1
 800215a:	701a      	strb	r2, [r3, #0]
			}
			wheelchair_mode = none;
 800215c:	4bac      	ldr	r3, [pc, #688]	; (8002410 <main+0x304>)
 800215e:	2200      	movs	r2, #0
 8002160:	701a      	strb	r2, [r3, #0]
 8002162:	e0c6      	b.n	80022f2 <main+0x1e6>
		}
		else if(MDIO_u8GetPinValue(GPIO_U8_PORTA, GPIO_U8_PIN12)==0)
 8002164:	210c      	movs	r1, #12
 8002166:	2000      	movs	r0, #0
 8002168:	f7ff f816 	bl	8001198 <MDIO_u8GetPinValue>
 800216c:	4603      	mov	r3, r0
 800216e:	2b00      	cmp	r3, #0
 8002170:	d120      	bne.n	80021b4 <main+0xa8>
		{
			if(first_time_joystick_flag==1)
 8002172:	4ba5      	ldr	r3, [pc, #660]	; (8002408 <main+0x2fc>)
 8002174:	781b      	ldrb	r3, [r3, #0]
 8002176:	2b01      	cmp	r3, #1
 8002178:	d118      	bne.n	80021ac <main+0xa0>
			{
				WheelChair_Stop();
 800217a:	f000 fcaf 	bl	8002adc <WheelChair_Stop>
				MUART_voidTransmitSync(&Debug, (u8* ) "Joystick\r\n");
 800217e:	49a5      	ldr	r1, [pc, #660]	; (8002414 <main+0x308>)
 8002180:	489c      	ldr	r0, [pc, #624]	; (80023f4 <main+0x2e8>)
 8002182:	f7ff ff37 	bl	8001ff4 <MUART_voidTransmitSync>
				MUART_voidTransmitSync(&Raspberry, (u8* ) "Joystick\r");
 8002186:	49a4      	ldr	r1, [pc, #656]	; (8002418 <main+0x30c>)
 8002188:	489c      	ldr	r0, [pc, #624]	; (80023fc <main+0x2f0>)
 800218a:	f7ff ff33 	bl	8001ff4 <MUART_voidTransmitSync>
				first_time_none_flag = 1;
 800218e:	4b97      	ldr	r3, [pc, #604]	; (80023ec <main+0x2e0>)
 8002190:	2201      	movs	r2, #1
 8002192:	701a      	strb	r2, [r3, #0]
				first_time_eye_flag = 1;
 8002194:	4b9a      	ldr	r3, [pc, #616]	; (8002400 <main+0x2f4>)
 8002196:	2201      	movs	r2, #1
 8002198:	701a      	strb	r2, [r3, #0]
				first_time_voice_flag = 1;
 800219a:	4b9a      	ldr	r3, [pc, #616]	; (8002404 <main+0x2f8>)
 800219c:	2201      	movs	r2, #1
 800219e:	701a      	strb	r2, [r3, #0]
				first_time_joystick_flag = 0;
 80021a0:	4b99      	ldr	r3, [pc, #612]	; (8002408 <main+0x2fc>)
 80021a2:	2200      	movs	r2, #0
 80021a4:	701a      	strb	r2, [r3, #0]
				first_time_remote_flag = 1;
 80021a6:	4b99      	ldr	r3, [pc, #612]	; (800240c <main+0x300>)
 80021a8:	2201      	movs	r2, #1
 80021aa:	701a      	strb	r2, [r3, #0]
			}
			wheelchair_mode = joystick;
 80021ac:	4b98      	ldr	r3, [pc, #608]	; (8002410 <main+0x304>)
 80021ae:	2201      	movs	r2, #1
 80021b0:	701a      	strb	r2, [r3, #0]
 80021b2:	e09e      	b.n	80022f2 <main+0x1e6>
		}
		else if(MDIO_u8GetPinValue(GPIO_U8_PORTA, GPIO_U8_PIN15)==0)
 80021b4:	210f      	movs	r1, #15
 80021b6:	2000      	movs	r0, #0
 80021b8:	f7fe ffee 	bl	8001198 <MDIO_u8GetPinValue>
 80021bc:	4603      	mov	r3, r0
 80021be:	2b00      	cmp	r3, #0
 80021c0:	d120      	bne.n	8002204 <main+0xf8>
		{
			if(first_time_eye_flag==1)
 80021c2:	4b8f      	ldr	r3, [pc, #572]	; (8002400 <main+0x2f4>)
 80021c4:	781b      	ldrb	r3, [r3, #0]
 80021c6:	2b01      	cmp	r3, #1
 80021c8:	d118      	bne.n	80021fc <main+0xf0>
			{
				WheelChair_Stop();
 80021ca:	f000 fc87 	bl	8002adc <WheelChair_Stop>
				MUART_voidTransmitSync(&Debug, (u8* ) "EYE\r\n");
 80021ce:	4993      	ldr	r1, [pc, #588]	; (800241c <main+0x310>)
 80021d0:	4888      	ldr	r0, [pc, #544]	; (80023f4 <main+0x2e8>)
 80021d2:	f7ff ff0f 	bl	8001ff4 <MUART_voidTransmitSync>
				MUART_voidTransmitSync(&Raspberry, (u8* ) "eye\r");
 80021d6:	4992      	ldr	r1, [pc, #584]	; (8002420 <main+0x314>)
 80021d8:	4888      	ldr	r0, [pc, #544]	; (80023fc <main+0x2f0>)
 80021da:	f7ff ff0b 	bl	8001ff4 <MUART_voidTransmitSync>
				first_time_none_flag = 1;
 80021de:	4b83      	ldr	r3, [pc, #524]	; (80023ec <main+0x2e0>)
 80021e0:	2201      	movs	r2, #1
 80021e2:	701a      	strb	r2, [r3, #0]
				first_time_eye_flag = 0;
 80021e4:	4b86      	ldr	r3, [pc, #536]	; (8002400 <main+0x2f4>)
 80021e6:	2200      	movs	r2, #0
 80021e8:	701a      	strb	r2, [r3, #0]
				first_time_voice_flag = 1;
 80021ea:	4b86      	ldr	r3, [pc, #536]	; (8002404 <main+0x2f8>)
 80021ec:	2201      	movs	r2, #1
 80021ee:	701a      	strb	r2, [r3, #0]
				first_time_joystick_flag = 1;
 80021f0:	4b85      	ldr	r3, [pc, #532]	; (8002408 <main+0x2fc>)
 80021f2:	2201      	movs	r2, #1
 80021f4:	701a      	strb	r2, [r3, #0]
				first_time_remote_flag = 1;
 80021f6:	4b85      	ldr	r3, [pc, #532]	; (800240c <main+0x300>)
 80021f8:	2201      	movs	r2, #1
 80021fa:	701a      	strb	r2, [r3, #0]
			}
			wheelchair_mode = eye;
 80021fc:	4b84      	ldr	r3, [pc, #528]	; (8002410 <main+0x304>)
 80021fe:	2202      	movs	r2, #2
 8002200:	701a      	strb	r2, [r3, #0]
 8002202:	e076      	b.n	80022f2 <main+0x1e6>
		}
		else if(MDIO_u8GetPinValue(GPIO_U8_PORTB, GPIO_U8_PIN4)==0)
 8002204:	2104      	movs	r1, #4
 8002206:	2001      	movs	r0, #1
 8002208:	f7fe ffc6 	bl	8001198 <MDIO_u8GetPinValue>
 800220c:	4603      	mov	r3, r0
 800220e:	2b00      	cmp	r3, #0
 8002210:	d120      	bne.n	8002254 <main+0x148>
		{
			if(first_time_remote_flag==1)
 8002212:	4b7e      	ldr	r3, [pc, #504]	; (800240c <main+0x300>)
 8002214:	781b      	ldrb	r3, [r3, #0]
 8002216:	2b01      	cmp	r3, #1
 8002218:	d118      	bne.n	800224c <main+0x140>
			{
				WheelChair_Stop();
 800221a:	f000 fc5f 	bl	8002adc <WheelChair_Stop>
				MUART_voidTransmitSync(&Debug, (u8* ) "Remote\r\n");
 800221e:	4981      	ldr	r1, [pc, #516]	; (8002424 <main+0x318>)
 8002220:	4874      	ldr	r0, [pc, #464]	; (80023f4 <main+0x2e8>)
 8002222:	f7ff fee7 	bl	8001ff4 <MUART_voidTransmitSync>
				MUART_voidTransmitSync(&Raspberry, (u8* ) "Remote\r");
 8002226:	4980      	ldr	r1, [pc, #512]	; (8002428 <main+0x31c>)
 8002228:	4874      	ldr	r0, [pc, #464]	; (80023fc <main+0x2f0>)
 800222a:	f7ff fee3 	bl	8001ff4 <MUART_voidTransmitSync>
				first_time_none_flag = 1;
 800222e:	4b6f      	ldr	r3, [pc, #444]	; (80023ec <main+0x2e0>)
 8002230:	2201      	movs	r2, #1
 8002232:	701a      	strb	r2, [r3, #0]
				first_time_eye_flag = 1;
 8002234:	4b72      	ldr	r3, [pc, #456]	; (8002400 <main+0x2f4>)
 8002236:	2201      	movs	r2, #1
 8002238:	701a      	strb	r2, [r3, #0]
				first_time_voice_flag = 1;
 800223a:	4b72      	ldr	r3, [pc, #456]	; (8002404 <main+0x2f8>)
 800223c:	2201      	movs	r2, #1
 800223e:	701a      	strb	r2, [r3, #0]
				first_time_joystick_flag = 1;
 8002240:	4b71      	ldr	r3, [pc, #452]	; (8002408 <main+0x2fc>)
 8002242:	2201      	movs	r2, #1
 8002244:	701a      	strb	r2, [r3, #0]
				first_time_remote_flag = 0;
 8002246:	4b71      	ldr	r3, [pc, #452]	; (800240c <main+0x300>)
 8002248:	2200      	movs	r2, #0
 800224a:	701a      	strb	r2, [r3, #0]
			}
			wheelchair_mode = remote;
 800224c:	4b70      	ldr	r3, [pc, #448]	; (8002410 <main+0x304>)
 800224e:	2204      	movs	r2, #4
 8002250:	701a      	strb	r2, [r3, #0]
 8002252:	e04e      	b.n	80022f2 <main+0x1e6>
		}
		else if(MDIO_u8GetPinValue(GPIO_U8_PORTB, GPIO_U8_PIN5)==0)
 8002254:	2105      	movs	r1, #5
 8002256:	2001      	movs	r0, #1
 8002258:	f7fe ff9e 	bl	8001198 <MDIO_u8GetPinValue>
 800225c:	4603      	mov	r3, r0
 800225e:	2b00      	cmp	r3, #0
 8002260:	d120      	bne.n	80022a4 <main+0x198>
		{
			if(first_time_none_flag==1)
 8002262:	4b62      	ldr	r3, [pc, #392]	; (80023ec <main+0x2e0>)
 8002264:	781b      	ldrb	r3, [r3, #0]
 8002266:	2b01      	cmp	r3, #1
 8002268:	d118      	bne.n	800229c <main+0x190>
			{
				WheelChair_Stop();
 800226a:	f000 fc37 	bl	8002adc <WheelChair_Stop>
				MUART_voidTransmitSync(&Debug, (u8* ) "None\r\n");
 800226e:	4960      	ldr	r1, [pc, #384]	; (80023f0 <main+0x2e4>)
 8002270:	4860      	ldr	r0, [pc, #384]	; (80023f4 <main+0x2e8>)
 8002272:	f7ff febf 	bl	8001ff4 <MUART_voidTransmitSync>
				MUART_voidTransmitSync(&Raspberry, (u8* ) "None\r");
 8002276:	4960      	ldr	r1, [pc, #384]	; (80023f8 <main+0x2ec>)
 8002278:	4860      	ldr	r0, [pc, #384]	; (80023fc <main+0x2f0>)
 800227a:	f7ff febb 	bl	8001ff4 <MUART_voidTransmitSync>
				first_time_none_flag = 0;
 800227e:	4b5b      	ldr	r3, [pc, #364]	; (80023ec <main+0x2e0>)
 8002280:	2200      	movs	r2, #0
 8002282:	701a      	strb	r2, [r3, #0]
				first_time_eye_flag = 1;
 8002284:	4b5e      	ldr	r3, [pc, #376]	; (8002400 <main+0x2f4>)
 8002286:	2201      	movs	r2, #1
 8002288:	701a      	strb	r2, [r3, #0]
				first_time_voice_flag = 1;
 800228a:	4b5e      	ldr	r3, [pc, #376]	; (8002404 <main+0x2f8>)
 800228c:	2201      	movs	r2, #1
 800228e:	701a      	strb	r2, [r3, #0]
				first_time_joystick_flag = 1;
 8002290:	4b5d      	ldr	r3, [pc, #372]	; (8002408 <main+0x2fc>)
 8002292:	2201      	movs	r2, #1
 8002294:	701a      	strb	r2, [r3, #0]
				first_time_remote_flag = 1;
 8002296:	4b5d      	ldr	r3, [pc, #372]	; (800240c <main+0x300>)
 8002298:	2201      	movs	r2, #1
 800229a:	701a      	strb	r2, [r3, #0]
			}
			wheelchair_mode = none;
 800229c:	4b5c      	ldr	r3, [pc, #368]	; (8002410 <main+0x304>)
 800229e:	2200      	movs	r2, #0
 80022a0:	701a      	strb	r2, [r3, #0]
 80022a2:	e026      	b.n	80022f2 <main+0x1e6>
		}
		else if(MDIO_u8GetPinValue(GPIO_U8_PORTB, GPIO_U8_PIN3)==0)
 80022a4:	2103      	movs	r1, #3
 80022a6:	2001      	movs	r0, #1
 80022a8:	f7fe ff76 	bl	8001198 <MDIO_u8GetPinValue>
 80022ac:	4603      	mov	r3, r0
 80022ae:	2b00      	cmp	r3, #0
 80022b0:	d11f      	bne.n	80022f2 <main+0x1e6>
		{
			if(first_time_voice_flag==1)
 80022b2:	4b54      	ldr	r3, [pc, #336]	; (8002404 <main+0x2f8>)
 80022b4:	781b      	ldrb	r3, [r3, #0]
 80022b6:	2b01      	cmp	r3, #1
 80022b8:	d118      	bne.n	80022ec <main+0x1e0>
			{
				WheelChair_Stop();
 80022ba:	f000 fc0f 	bl	8002adc <WheelChair_Stop>
				MUART_voidTransmitSync(&Debug, (u8* ) "VOICE\r\n");
 80022be:	495b      	ldr	r1, [pc, #364]	; (800242c <main+0x320>)
 80022c0:	484c      	ldr	r0, [pc, #304]	; (80023f4 <main+0x2e8>)
 80022c2:	f7ff fe97 	bl	8001ff4 <MUART_voidTransmitSync>
				MUART_voidTransmitSync(&Raspberry, (u8* ) "voice\r");
 80022c6:	495a      	ldr	r1, [pc, #360]	; (8002430 <main+0x324>)
 80022c8:	484c      	ldr	r0, [pc, #304]	; (80023fc <main+0x2f0>)
 80022ca:	f7ff fe93 	bl	8001ff4 <MUART_voidTransmitSync>
				first_time_none_flag = 1;
 80022ce:	4b47      	ldr	r3, [pc, #284]	; (80023ec <main+0x2e0>)
 80022d0:	2201      	movs	r2, #1
 80022d2:	701a      	strb	r2, [r3, #0]
				first_time_eye_flag = 1;
 80022d4:	4b4a      	ldr	r3, [pc, #296]	; (8002400 <main+0x2f4>)
 80022d6:	2201      	movs	r2, #1
 80022d8:	701a      	strb	r2, [r3, #0]
				first_time_voice_flag = 0;
 80022da:	4b4a      	ldr	r3, [pc, #296]	; (8002404 <main+0x2f8>)
 80022dc:	2200      	movs	r2, #0
 80022de:	701a      	strb	r2, [r3, #0]
				first_time_joystick_flag = 1;
 80022e0:	4b49      	ldr	r3, [pc, #292]	; (8002408 <main+0x2fc>)
 80022e2:	2201      	movs	r2, #1
 80022e4:	701a      	strb	r2, [r3, #0]
				first_time_remote_flag = 1;
 80022e6:	4b49      	ldr	r3, [pc, #292]	; (800240c <main+0x300>)
 80022e8:	2201      	movs	r2, #1
 80022ea:	701a      	strb	r2, [r3, #0]
			}
			wheelchair_mode = voice;
 80022ec:	4b48      	ldr	r3, [pc, #288]	; (8002410 <main+0x304>)
 80022ee:	2203      	movs	r2, #3
 80022f0:	701a      	strb	r2, [r3, #0]
		}
		if(wheelchair_mode==voice||wheelchair_mode==eye)
 80022f2:	4b47      	ldr	r3, [pc, #284]	; (8002410 <main+0x304>)
 80022f4:	781b      	ldrb	r3, [r3, #0]
 80022f6:	2b03      	cmp	r3, #3
 80022f8:	d003      	beq.n	8002302 <main+0x1f6>
 80022fa:	4b45      	ldr	r3, [pc, #276]	; (8002410 <main+0x304>)
 80022fc:	781b      	ldrb	r3, [r3, #0]
 80022fe:	2b02      	cmp	r3, #2
 8002300:	d14d      	bne.n	800239e <main+0x292>
		{
			if(Raspberry_command_flag == 1)
 8002302:	4b4c      	ldr	r3, [pc, #304]	; (8002434 <main+0x328>)
 8002304:	781b      	ldrb	r3, [r3, #0]
 8002306:	2b01      	cmp	r3, #1
 8002308:	f040 8110 	bne.w	800252c <main+0x420>
			{
				if(compare_strings(Command_Raspberry, (u8* ) "Stop\r"))
 800230c:	494a      	ldr	r1, [pc, #296]	; (8002438 <main+0x32c>)
 800230e:	484b      	ldr	r0, [pc, #300]	; (800243c <main+0x330>)
 8002310:	f000 fc82 	bl	8002c18 <compare_strings>
 8002314:	4603      	mov	r3, r0
 8002316:	2b00      	cmp	r3, #0
 8002318:	d006      	beq.n	8002328 <main+0x21c>
				{
					MUART_voidTransmitSync(&Debug, (u8* ) "STOP\r\n");
 800231a:	4949      	ldr	r1, [pc, #292]	; (8002440 <main+0x334>)
 800231c:	4835      	ldr	r0, [pc, #212]	; (80023f4 <main+0x2e8>)
 800231e:	f7ff fe69 	bl	8001ff4 <MUART_voidTransmitSync>
					WheelChair_Stop();
 8002322:	f000 fbdb 	bl	8002adc <WheelChair_Stop>
 8002326:	e036      	b.n	8002396 <main+0x28a>
				}
				else if(compare_strings(Command_Raspberry, (u8* ) "Forward\r"))
 8002328:	4946      	ldr	r1, [pc, #280]	; (8002444 <main+0x338>)
 800232a:	4844      	ldr	r0, [pc, #272]	; (800243c <main+0x330>)
 800232c:	f000 fc74 	bl	8002c18 <compare_strings>
 8002330:	4603      	mov	r3, r0
 8002332:	2b00      	cmp	r3, #0
 8002334:	d006      	beq.n	8002344 <main+0x238>
				{
					MUART_voidTransmitSync(&Debug, (u8* ) "FORWARD\r\n");
 8002336:	4944      	ldr	r1, [pc, #272]	; (8002448 <main+0x33c>)
 8002338:	482e      	ldr	r0, [pc, #184]	; (80023f4 <main+0x2e8>)
 800233a:	f7ff fe5b 	bl	8001ff4 <MUART_voidTransmitSync>
					WheelChair_Forward();
 800233e:	f000 fb4d 	bl	80029dc <WheelChair_Forward>
 8002342:	e028      	b.n	8002396 <main+0x28a>
				}
				else if(compare_strings(Command_Raspberry, (u8* ) "Backward\r"))
 8002344:	4941      	ldr	r1, [pc, #260]	; (800244c <main+0x340>)
 8002346:	483d      	ldr	r0, [pc, #244]	; (800243c <main+0x330>)
 8002348:	f000 fc66 	bl	8002c18 <compare_strings>
 800234c:	4603      	mov	r3, r0
 800234e:	2b00      	cmp	r3, #0
 8002350:	d006      	beq.n	8002360 <main+0x254>
				{
					MUART_voidTransmitSync(&Debug, (u8* ) "BACKWARD\r\n");
 8002352:	493f      	ldr	r1, [pc, #252]	; (8002450 <main+0x344>)
 8002354:	4827      	ldr	r0, [pc, #156]	; (80023f4 <main+0x2e8>)
 8002356:	f7ff fe4d 	bl	8001ff4 <MUART_voidTransmitSync>
					WheelChair_Backward();
 800235a:	f000 fb5f 	bl	8002a1c <WheelChair_Backward>
 800235e:	e01a      	b.n	8002396 <main+0x28a>
				}
				else if(compare_strings(Command_Raspberry, (u8* ) "Right\r"))
 8002360:	493c      	ldr	r1, [pc, #240]	; (8002454 <main+0x348>)
 8002362:	4836      	ldr	r0, [pc, #216]	; (800243c <main+0x330>)
 8002364:	f000 fc58 	bl	8002c18 <compare_strings>
 8002368:	4603      	mov	r3, r0
 800236a:	2b00      	cmp	r3, #0
 800236c:	d006      	beq.n	800237c <main+0x270>
				{
					MUART_voidTransmitSync(&Debug, (u8* ) "RIGHT\r\n");
 800236e:	493a      	ldr	r1, [pc, #232]	; (8002458 <main+0x34c>)
 8002370:	4820      	ldr	r0, [pc, #128]	; (80023f4 <main+0x2e8>)
 8002372:	f7ff fe3f 	bl	8001ff4 <MUART_voidTransmitSync>
					WheelChair_Right();
 8002376:	f000 fb71 	bl	8002a5c <WheelChair_Right>
 800237a:	e00c      	b.n	8002396 <main+0x28a>
				}
				else if(compare_strings(Command_Raspberry, (u8* ) "Left\r"))
 800237c:	4937      	ldr	r1, [pc, #220]	; (800245c <main+0x350>)
 800237e:	482f      	ldr	r0, [pc, #188]	; (800243c <main+0x330>)
 8002380:	f000 fc4a 	bl	8002c18 <compare_strings>
 8002384:	4603      	mov	r3, r0
 8002386:	2b00      	cmp	r3, #0
 8002388:	d005      	beq.n	8002396 <main+0x28a>
				{
					MUART_voidTransmitSync(&Debug, (u8* ) "LEFT\r\n");
 800238a:	4935      	ldr	r1, [pc, #212]	; (8002460 <main+0x354>)
 800238c:	4819      	ldr	r0, [pc, #100]	; (80023f4 <main+0x2e8>)
 800238e:	f7ff fe31 	bl	8001ff4 <MUART_voidTransmitSync>
					WheelChair_Left();
 8002392:	f000 fb83 	bl	8002a9c <WheelChair_Left>
				}
				//MUART_voidTransmitSync(&Debug, Command_Raspberry);
				Raspberry_command_flag = 0;
 8002396:	4b27      	ldr	r3, [pc, #156]	; (8002434 <main+0x328>)
 8002398:	2200      	movs	r2, #0
 800239a:	701a      	strb	r2, [r3, #0]
			if(Raspberry_command_flag == 1)
 800239c:	e0c6      	b.n	800252c <main+0x420>
			}

		}
		else if(wheelchair_mode==joystick)
 800239e:	4b1c      	ldr	r3, [pc, #112]	; (8002410 <main+0x304>)
 80023a0:	781b      	ldrb	r3, [r3, #0]
 80023a2:	2b01      	cmp	r3, #1
 80023a4:	d102      	bne.n	80023ac <main+0x2a0>
		{
			ControlWheelchairUsingJoystick();
 80023a6:	f000 fa8b 	bl	80028c0 <ControlWheelchairUsingJoystick>
 80023aa:	e6b3      	b.n	8002114 <main+0x8>
		}
		else if(wheelchair_mode==remote)
 80023ac:	4b18      	ldr	r3, [pc, #96]	; (8002410 <main+0x304>)
 80023ae:	781b      	ldrb	r3, [r3, #0]
 80023b0:	2b04      	cmp	r3, #4
 80023b2:	f040 80b2 	bne.w	800251a <main+0x40e>
		{
			if(Bluetooth_command_flag == 1)
 80023b6:	4b2b      	ldr	r3, [pc, #172]	; (8002464 <main+0x358>)
 80023b8:	781b      	ldrb	r3, [r3, #0]
 80023ba:	2b01      	cmp	r3, #1
 80023bc:	f47f aeaa 	bne.w	8002114 <main+0x8>
			{
				if(Bluetooth_char=='S')
 80023c0:	4b29      	ldr	r3, [pc, #164]	; (8002468 <main+0x35c>)
 80023c2:	781b      	ldrb	r3, [r3, #0]
 80023c4:	2b53      	cmp	r3, #83	; 0x53
 80023c6:	d106      	bne.n	80023d6 <main+0x2ca>
				{
					MUART_voidTransmitSync(&Debug, (u8* ) "STOP\r\n");
 80023c8:	491d      	ldr	r1, [pc, #116]	; (8002440 <main+0x334>)
 80023ca:	480a      	ldr	r0, [pc, #40]	; (80023f4 <main+0x2e8>)
 80023cc:	f7ff fe12 	bl	8001ff4 <MUART_voidTransmitSync>
					WheelChair_Stop();
 80023d0:	f000 fb84 	bl	8002adc <WheelChair_Stop>
 80023d4:	e09d      	b.n	8002512 <main+0x406>
				}
				else if(Bluetooth_char=='F')
 80023d6:	4b24      	ldr	r3, [pc, #144]	; (8002468 <main+0x35c>)
 80023d8:	781b      	ldrb	r3, [r3, #0]
 80023da:	2b46      	cmp	r3, #70	; 0x46
 80023dc:	d146      	bne.n	800246c <main+0x360>
				{
					MUART_voidTransmitSync(&Debug, (u8* ) "FORWARD\r\n");
 80023de:	491a      	ldr	r1, [pc, #104]	; (8002448 <main+0x33c>)
 80023e0:	4804      	ldr	r0, [pc, #16]	; (80023f4 <main+0x2e8>)
 80023e2:	f7ff fe07 	bl	8001ff4 <MUART_voidTransmitSync>
					WheelChair_Forward();
 80023e6:	f000 faf9 	bl	80029dc <WheelChair_Forward>
 80023ea:	e092      	b.n	8002512 <main+0x406>
 80023ec:	20000014 	.word	0x20000014
 80023f0:	08002d64 	.word	0x08002d64
 80023f4:	200000c4 	.word	0x200000c4
 80023f8:	08002d6c 	.word	0x08002d6c
 80023fc:	200000a4 	.word	0x200000a4
 8002400:	20000015 	.word	0x20000015
 8002404:	20000016 	.word	0x20000016
 8002408:	20000017 	.word	0x20000017
 800240c:	20000018 	.word	0x20000018
 8002410:	20000054 	.word	0x20000054
 8002414:	08002d74 	.word	0x08002d74
 8002418:	08002d80 	.word	0x08002d80
 800241c:	08002d8c 	.word	0x08002d8c
 8002420:	08002d94 	.word	0x08002d94
 8002424:	08002d9c 	.word	0x08002d9c
 8002428:	08002da8 	.word	0x08002da8
 800242c:	08002db0 	.word	0x08002db0
 8002430:	08002db8 	.word	0x08002db8
 8002434:	2000004c 	.word	0x2000004c
 8002438:	08002dc0 	.word	0x08002dc0
 800243c:	20000090 	.word	0x20000090
 8002440:	08002dc8 	.word	0x08002dc8
 8002444:	08002dd0 	.word	0x08002dd0
 8002448:	08002ddc 	.word	0x08002ddc
 800244c:	08002de8 	.word	0x08002de8
 8002450:	08002df4 	.word	0x08002df4
 8002454:	08002e00 	.word	0x08002e00
 8002458:	08002e08 	.word	0x08002e08
 800245c:	08002e10 	.word	0x08002e10
 8002460:	08002e18 	.word	0x08002e18
 8002464:	2000004e 	.word	0x2000004e
 8002468:	2000004d 	.word	0x2000004d
				}
				else if(Bluetooth_char=='B')
 800246c:	4b30      	ldr	r3, [pc, #192]	; (8002530 <main+0x424>)
 800246e:	781b      	ldrb	r3, [r3, #0]
 8002470:	2b42      	cmp	r3, #66	; 0x42
 8002472:	d106      	bne.n	8002482 <main+0x376>
				{
					MUART_voidTransmitSync(&Debug, (u8* ) "BACKWARD\r\n");
 8002474:	492f      	ldr	r1, [pc, #188]	; (8002534 <main+0x428>)
 8002476:	4830      	ldr	r0, [pc, #192]	; (8002538 <main+0x42c>)
 8002478:	f7ff fdbc 	bl	8001ff4 <MUART_voidTransmitSync>
					WheelChair_Backward();
 800247c:	f000 face 	bl	8002a1c <WheelChair_Backward>
 8002480:	e047      	b.n	8002512 <main+0x406>
				}
				else if(Bluetooth_char=='R')
 8002482:	4b2b      	ldr	r3, [pc, #172]	; (8002530 <main+0x424>)
 8002484:	781b      	ldrb	r3, [r3, #0]
 8002486:	2b52      	cmp	r3, #82	; 0x52
 8002488:	d106      	bne.n	8002498 <main+0x38c>
				{
					MUART_voidTransmitSync(&Debug, (u8* ) "RIGHT\r\n");
 800248a:	492c      	ldr	r1, [pc, #176]	; (800253c <main+0x430>)
 800248c:	482a      	ldr	r0, [pc, #168]	; (8002538 <main+0x42c>)
 800248e:	f7ff fdb1 	bl	8001ff4 <MUART_voidTransmitSync>
					WheelChair_Right();
 8002492:	f000 fae3 	bl	8002a5c <WheelChair_Right>
 8002496:	e03c      	b.n	8002512 <main+0x406>
				}
				else if(Bluetooth_char=='L')
 8002498:	4b25      	ldr	r3, [pc, #148]	; (8002530 <main+0x424>)
 800249a:	781b      	ldrb	r3, [r3, #0]
 800249c:	2b4c      	cmp	r3, #76	; 0x4c
 800249e:	d106      	bne.n	80024ae <main+0x3a2>
				{
					MUART_voidTransmitSync(&Debug, (u8* ) "LEFT\r\n");
 80024a0:	4927      	ldr	r1, [pc, #156]	; (8002540 <main+0x434>)
 80024a2:	4825      	ldr	r0, [pc, #148]	; (8002538 <main+0x42c>)
 80024a4:	f7ff fda6 	bl	8001ff4 <MUART_voidTransmitSync>
					WheelChair_Left();
 80024a8:	f000 faf8 	bl	8002a9c <WheelChair_Left>
 80024ac:	e031      	b.n	8002512 <main+0x406>
				}
				else if(Bluetooth_char=='G')
 80024ae:	4b20      	ldr	r3, [pc, #128]	; (8002530 <main+0x424>)
 80024b0:	781b      	ldrb	r3, [r3, #0]
 80024b2:	2b47      	cmp	r3, #71	; 0x47
 80024b4:	d106      	bne.n	80024c4 <main+0x3b8>
				{
					MUART_voidTransmitSync(&Debug, (u8* ) "FORWARD LEFT\r\n");
 80024b6:	4923      	ldr	r1, [pc, #140]	; (8002544 <main+0x438>)
 80024b8:	481f      	ldr	r0, [pc, #124]	; (8002538 <main+0x42c>)
 80024ba:	f7ff fd9b 	bl	8001ff4 <MUART_voidTransmitSync>
					WheelChair_LeftForward();
 80024be:	f000 fb4b 	bl	8002b58 <WheelChair_LeftForward>
 80024c2:	e026      	b.n	8002512 <main+0x406>
				}
				else if(Bluetooth_char=='I')
 80024c4:	4b1a      	ldr	r3, [pc, #104]	; (8002530 <main+0x424>)
 80024c6:	781b      	ldrb	r3, [r3, #0]
 80024c8:	2b49      	cmp	r3, #73	; 0x49
 80024ca:	d106      	bne.n	80024da <main+0x3ce>
				{
					MUART_voidTransmitSync(&Debug, (u8* ) "FORWARD RIGHT\r\n");
 80024cc:	491e      	ldr	r1, [pc, #120]	; (8002548 <main+0x43c>)
 80024ce:	481a      	ldr	r0, [pc, #104]	; (8002538 <main+0x42c>)
 80024d0:	f7ff fd90 	bl	8001ff4 <MUART_voidTransmitSync>
					WheelChair_RightForward();
 80024d4:	f000 fb20 	bl	8002b18 <WheelChair_RightForward>
 80024d8:	e01b      	b.n	8002512 <main+0x406>
				}
				else if(Bluetooth_char=='H')
 80024da:	4b15      	ldr	r3, [pc, #84]	; (8002530 <main+0x424>)
 80024dc:	781b      	ldrb	r3, [r3, #0]
 80024de:	2b48      	cmp	r3, #72	; 0x48
 80024e0:	d106      	bne.n	80024f0 <main+0x3e4>
				{
					MUART_voidTransmitSync(&Debug, (u8* ) "BACK LEFT\r\n");
 80024e2:	491a      	ldr	r1, [pc, #104]	; (800254c <main+0x440>)
 80024e4:	4814      	ldr	r0, [pc, #80]	; (8002538 <main+0x42c>)
 80024e6:	f7ff fd85 	bl	8001ff4 <MUART_voidTransmitSync>
					WheelChair_LeftBackward();
 80024ea:	f000 fb75 	bl	8002bd8 <WheelChair_LeftBackward>
 80024ee:	e010      	b.n	8002512 <main+0x406>
				}
				else if(Bluetooth_char=='J')
 80024f0:	4b0f      	ldr	r3, [pc, #60]	; (8002530 <main+0x424>)
 80024f2:	781b      	ldrb	r3, [r3, #0]
 80024f4:	2b4a      	cmp	r3, #74	; 0x4a
 80024f6:	d106      	bne.n	8002506 <main+0x3fa>
				{
					MUART_voidTransmitSync(&Debug, (u8* ) "BACK RIGHT\r\n");
 80024f8:	4915      	ldr	r1, [pc, #84]	; (8002550 <main+0x444>)
 80024fa:	480f      	ldr	r0, [pc, #60]	; (8002538 <main+0x42c>)
 80024fc:	f7ff fd7a 	bl	8001ff4 <MUART_voidTransmitSync>
					WheelChair_RightBackward();
 8002500:	f000 fb4a 	bl	8002b98 <WheelChair_RightBackward>
 8002504:	e005      	b.n	8002512 <main+0x406>
				}
				else
				{
					MUART_voidTransmitSync(&Debug, (u8* ) "STOP\r\n");
 8002506:	4913      	ldr	r1, [pc, #76]	; (8002554 <main+0x448>)
 8002508:	480b      	ldr	r0, [pc, #44]	; (8002538 <main+0x42c>)
 800250a:	f7ff fd73 	bl	8001ff4 <MUART_voidTransmitSync>
					WheelChair_Stop();
 800250e:	f000 fae5 	bl	8002adc <WheelChair_Stop>
				}
				Bluetooth_command_flag = 0;
 8002512:	4b11      	ldr	r3, [pc, #68]	; (8002558 <main+0x44c>)
 8002514:	2200      	movs	r2, #0
 8002516:	701a      	strb	r2, [r3, #0]
 8002518:	e5fc      	b.n	8002114 <main+0x8>
			}
		}
		else if(wheelchair_mode==none)
 800251a:	4b10      	ldr	r3, [pc, #64]	; (800255c <main+0x450>)
 800251c:	781b      	ldrb	r3, [r3, #0]
 800251e:	2b00      	cmp	r3, #0
 8002520:	d102      	bne.n	8002528 <main+0x41c>
		{
			WheelChair_Stop();
 8002522:	f000 fadb 	bl	8002adc <WheelChair_Stop>
 8002526:	e5f5      	b.n	8002114 <main+0x8>
		}
		else
		{
			WheelChair_Stop();
 8002528:	f000 fad8 	bl	8002adc <WheelChair_Stop>
		if(MDIO_u8GetPinValue(GPIO_U8_PORTA, GPIO_U8_PIN11)==0)
 800252c:	e5f2      	b.n	8002114 <main+0x8>
 800252e:	bf00      	nop
 8002530:	2000004d 	.word	0x2000004d
 8002534:	08002df4 	.word	0x08002df4
 8002538:	200000c4 	.word	0x200000c4
 800253c:	08002e08 	.word	0x08002e08
 8002540:	08002e18 	.word	0x08002e18
 8002544:	08002e20 	.word	0x08002e20
 8002548:	08002e30 	.word	0x08002e30
 800254c:	08002e40 	.word	0x08002e40
 8002550:	08002e4c 	.word	0x08002e4c
 8002554:	08002dc8 	.word	0x08002dc8
 8002558:	2000004e 	.word	0x2000004e
 800255c:	20000054 	.word	0x20000054

08002560 <GetDataFromRaspberryPi>:
		}
		//GetTamperature();
	}
}
void GetDataFromRaspberryPi()
{
 8002560:	b580      	push	{r7, lr}
 8002562:	b082      	sub	sp, #8
 8002564:	af00      	add	r7, sp, #0
	static u8 counter = 0;
	u8 temp = MUART2_u8ReadDR();
 8002566:	f7ff fdb9 	bl	80020dc <MUART2_u8ReadDR>
 800256a:	4603      	mov	r3, r0
 800256c:	71fb      	strb	r3, [r7, #7]
	if(temp!='\n')
 800256e:	79fb      	ldrb	r3, [r7, #7]
 8002570:	2b0a      	cmp	r3, #10
 8002572:	d00f      	beq.n	8002594 <GetDataFromRaspberryPi+0x34>
	{
		if(temp!='\r')
 8002574:	79fb      	ldrb	r3, [r7, #7]
 8002576:	2b0d      	cmp	r3, #13
 8002578:	d018      	beq.n	80025ac <GetDataFromRaspberryPi+0x4c>
		{
			Command_Raspberry[counter]=temp;
 800257a:	4b0e      	ldr	r3, [pc, #56]	; (80025b4 <GetDataFromRaspberryPi+0x54>)
 800257c:	781b      	ldrb	r3, [r3, #0]
 800257e:	4619      	mov	r1, r3
 8002580:	4a0d      	ldr	r2, [pc, #52]	; (80025b8 <GetDataFromRaspberryPi+0x58>)
 8002582:	79fb      	ldrb	r3, [r7, #7]
 8002584:	5453      	strb	r3, [r2, r1]
			counter++;
 8002586:	4b0b      	ldr	r3, [pc, #44]	; (80025b4 <GetDataFromRaspberryPi+0x54>)
 8002588:	781b      	ldrb	r3, [r3, #0]
 800258a:	3301      	adds	r3, #1
 800258c:	b2da      	uxtb	r2, r3
 800258e:	4b09      	ldr	r3, [pc, #36]	; (80025b4 <GetDataFromRaspberryPi+0x54>)
 8002590:	701a      	strb	r2, [r3, #0]
	{
		Raspberry_command_flag = 1;
		Command_Raspberry[counter]='\0';
		counter = 0;
	}
}
 8002592:	e00b      	b.n	80025ac <GetDataFromRaspberryPi+0x4c>
		Raspberry_command_flag = 1;
 8002594:	4b09      	ldr	r3, [pc, #36]	; (80025bc <GetDataFromRaspberryPi+0x5c>)
 8002596:	2201      	movs	r2, #1
 8002598:	701a      	strb	r2, [r3, #0]
		Command_Raspberry[counter]='\0';
 800259a:	4b06      	ldr	r3, [pc, #24]	; (80025b4 <GetDataFromRaspberryPi+0x54>)
 800259c:	781b      	ldrb	r3, [r3, #0]
 800259e:	461a      	mov	r2, r3
 80025a0:	4b05      	ldr	r3, [pc, #20]	; (80025b8 <GetDataFromRaspberryPi+0x58>)
 80025a2:	2100      	movs	r1, #0
 80025a4:	5499      	strb	r1, [r3, r2]
		counter = 0;
 80025a6:	4b03      	ldr	r3, [pc, #12]	; (80025b4 <GetDataFromRaspberryPi+0x54>)
 80025a8:	2200      	movs	r2, #0
 80025aa:	701a      	strb	r2, [r3, #0]
}
 80025ac:	bf00      	nop
 80025ae:	3708      	adds	r7, #8
 80025b0:	46bd      	mov	sp, r7
 80025b2:	bd80      	pop	{r7, pc}
 80025b4:	20000055 	.word	0x20000055
 80025b8:	20000090 	.word	0x20000090
 80025bc:	2000004c 	.word	0x2000004c

080025c0 <GetDataFromBluetooth>:
void GetDataFromBluetooth()
{
 80025c0:	b580      	push	{r7, lr}
 80025c2:	b082      	sub	sp, #8
 80025c4:	af00      	add	r7, sp, #0
	//static u8 counter = 0;
	u8 temp = MUART3_u8ReadDR();
 80025c6:	f7ff fd95 	bl	80020f4 <MUART3_u8ReadDR>
 80025ca:	4603      	mov	r3, r0
 80025cc:	71fb      	strb	r3, [r7, #7]
	Bluetooth_char = temp;
 80025ce:	4a05      	ldr	r2, [pc, #20]	; (80025e4 <GetDataFromBluetooth+0x24>)
 80025d0:	79fb      	ldrb	r3, [r7, #7]
 80025d2:	7013      	strb	r3, [r2, #0]
	Bluetooth_command_flag = 1;
 80025d4:	4b04      	ldr	r3, [pc, #16]	; (80025e8 <GetDataFromBluetooth+0x28>)
 80025d6:	2201      	movs	r2, #1
 80025d8:	701a      	strb	r2, [r3, #0]
		Debug_command_flag = 1;
		Command_Debug[counter]='\0';
		counter = 0;
	}
	*/
}
 80025da:	bf00      	nop
 80025dc:	3708      	adds	r7, #8
 80025de:	46bd      	mov	sp, r7
 80025e0:	bd80      	pop	{r7, pc}
 80025e2:	bf00      	nop
 80025e4:	2000004d 	.word	0x2000004d
 80025e8:	2000004e 	.word	0x2000004e

080025ec <Init>:
void Init()
{
 80025ec:	b580      	push	{r7, lr}
 80025ee:	af00      	add	r7, sp, #0
	Debug.UART_NUM=UART1;
 80025f0:	4bae      	ldr	r3, [pc, #696]	; (80028ac <Init+0x2c0>)
 80025f2:	2200      	movs	r2, #0
 80025f4:	701a      	strb	r2, [r3, #0]
	Debug.UART_ENABLE_STATE=UART_ENABLE;
 80025f6:	4bad      	ldr	r3, [pc, #692]	; (80028ac <Init+0x2c0>)
 80025f8:	2201      	movs	r2, #1
 80025fa:	705a      	strb	r2, [r3, #1]
	Debug.UART_WORD_LENGTH=UART_EIGHT_BITS;
 80025fc:	4bab      	ldr	r3, [pc, #684]	; (80028ac <Init+0x2c0>)
 80025fe:	2200      	movs	r2, #0
 8002600:	709a      	strb	r2, [r3, #2]
	Debug.UART_WAKEUP=UART_IDLE_LINE;
 8002602:	4baa      	ldr	r3, [pc, #680]	; (80028ac <Init+0x2c0>)
 8002604:	2200      	movs	r2, #0
 8002606:	70da      	strb	r2, [r3, #3]
	Debug.UART_PARITY_CONTROL_ENABLE=UART_PARITY_DISABLED;
 8002608:	4ba8      	ldr	r3, [pc, #672]	; (80028ac <Init+0x2c0>)
 800260a:	2200      	movs	r2, #0
 800260c:	711a      	strb	r2, [r3, #4]
	Debug.UART_PARITY_SELECTION=UART_EVEN_PARITY;
 800260e:	4ba7      	ldr	r3, [pc, #668]	; (80028ac <Init+0x2c0>)
 8002610:	2200      	movs	r2, #0
 8002612:	715a      	strb	r2, [r3, #5]
	Debug.UART_PEIE=UART_INTERRUPT_IS_INHIBITED_PE;
 8002614:	4ba5      	ldr	r3, [pc, #660]	; (80028ac <Init+0x2c0>)
 8002616:	2200      	movs	r2, #0
 8002618:	719a      	strb	r2, [r3, #6]
	Debug.UART_TXEIE=UART_INTERRUPT_IS_INHIBITED_TXE;
 800261a:	4ba4      	ldr	r3, [pc, #656]	; (80028ac <Init+0x2c0>)
 800261c:	2200      	movs	r2, #0
 800261e:	71da      	strb	r2, [r3, #7]
	Debug.UART_TCIE=UART_INTERRUPT_IS_INHIBITED_TC;
 8002620:	4ba2      	ldr	r3, [pc, #648]	; (80028ac <Init+0x2c0>)
 8002622:	2200      	movs	r2, #0
 8002624:	721a      	strb	r2, [r3, #8]
	Debug.UART_RXNEIE=UART_INTERRUPT_IS_INHIBITED_RXNE;
 8002626:	4ba1      	ldr	r3, [pc, #644]	; (80028ac <Init+0x2c0>)
 8002628:	2200      	movs	r2, #0
 800262a:	725a      	strb	r2, [r3, #9]
	Debug.UART_IDLEIE=UART_INTERRUPT_IS_INHIBITED_IDLE;
 800262c:	4b9f      	ldr	r3, [pc, #636]	; (80028ac <Init+0x2c0>)
 800262e:	2200      	movs	r2, #0
 8002630:	729a      	strb	r2, [r3, #10]
	Debug.UART_TE=UART_TRANSMITTER_ENABLE;
 8002632:	4b9e      	ldr	r3, [pc, #632]	; (80028ac <Init+0x2c0>)
 8002634:	2201      	movs	r2, #1
 8002636:	72da      	strb	r2, [r3, #11]
	Debug.UART_RE=UART_RECEIVER_ENABLE;
 8002638:	4b9c      	ldr	r3, [pc, #624]	; (80028ac <Init+0x2c0>)
 800263a:	2201      	movs	r2, #1
 800263c:	731a      	strb	r2, [r3, #12]
	Debug.UART_RWU=UART_RECEIVER_ACTIVE_MODE;
 800263e:	4b9b      	ldr	r3, [pc, #620]	; (80028ac <Init+0x2c0>)
 8002640:	2200      	movs	r2, #0
 8002642:	735a      	strb	r2, [r3, #13]
	Debug.UART_SBK=UART_NO_BREAK_CHARACTER;
 8002644:	4b99      	ldr	r3, [pc, #612]	; (80028ac <Init+0x2c0>)
 8002646:	2200      	movs	r2, #0
 8002648:	739a      	strb	r2, [r3, #14]
	Debug.UART_BaudRate=9600;
 800264a:	4b98      	ldr	r3, [pc, #608]	; (80028ac <Init+0x2c0>)
 800264c:	f44f 5216 	mov.w	r2, #9600	; 0x2580
 8002650:	61da      	str	r2, [r3, #28]

	//UART Configuration for Raspberry pi communication
	Raspberry.UART_NUM=UART2;
 8002652:	4b97      	ldr	r3, [pc, #604]	; (80028b0 <Init+0x2c4>)
 8002654:	2201      	movs	r2, #1
 8002656:	701a      	strb	r2, [r3, #0]
	Raspberry.UART_ENABLE_STATE=UART_ENABLE;
 8002658:	4b95      	ldr	r3, [pc, #596]	; (80028b0 <Init+0x2c4>)
 800265a:	2201      	movs	r2, #1
 800265c:	705a      	strb	r2, [r3, #1]
	Raspberry.UART_WORD_LENGTH=UART_EIGHT_BITS;
 800265e:	4b94      	ldr	r3, [pc, #592]	; (80028b0 <Init+0x2c4>)
 8002660:	2200      	movs	r2, #0
 8002662:	709a      	strb	r2, [r3, #2]
	Raspberry.UART_WAKEUP=UART_IDLE_LINE;
 8002664:	4b92      	ldr	r3, [pc, #584]	; (80028b0 <Init+0x2c4>)
 8002666:	2200      	movs	r2, #0
 8002668:	70da      	strb	r2, [r3, #3]
	Raspberry.UART_PARITY_CONTROL_ENABLE=UART_PARITY_DISABLED;
 800266a:	4b91      	ldr	r3, [pc, #580]	; (80028b0 <Init+0x2c4>)
 800266c:	2200      	movs	r2, #0
 800266e:	711a      	strb	r2, [r3, #4]
	Raspberry.UART_PARITY_SELECTION=UART_EVEN_PARITY;
 8002670:	4b8f      	ldr	r3, [pc, #572]	; (80028b0 <Init+0x2c4>)
 8002672:	2200      	movs	r2, #0
 8002674:	715a      	strb	r2, [r3, #5]
	Raspberry.UART_PEIE=UART_INTERRUPT_IS_INHIBITED_PE;
 8002676:	4b8e      	ldr	r3, [pc, #568]	; (80028b0 <Init+0x2c4>)
 8002678:	2200      	movs	r2, #0
 800267a:	719a      	strb	r2, [r3, #6]
	Raspberry.UART_TXEIE=UART_INTERRUPT_IS_INHIBITED_TXE;
 800267c:	4b8c      	ldr	r3, [pc, #560]	; (80028b0 <Init+0x2c4>)
 800267e:	2200      	movs	r2, #0
 8002680:	71da      	strb	r2, [r3, #7]
	Raspberry.UART_TCIE=UART_INTERRUPT_IS_INHIBITED_TC;
 8002682:	4b8b      	ldr	r3, [pc, #556]	; (80028b0 <Init+0x2c4>)
 8002684:	2200      	movs	r2, #0
 8002686:	721a      	strb	r2, [r3, #8]
	Raspberry.UART_RXNEIE=UART_INTERRUPT_ENABLE_RXNE;
 8002688:	4b89      	ldr	r3, [pc, #548]	; (80028b0 <Init+0x2c4>)
 800268a:	2201      	movs	r2, #1
 800268c:	725a      	strb	r2, [r3, #9]
	Raspberry.UART_IDLEIE=UART_INTERRUPT_IS_INHIBITED_IDLE;
 800268e:	4b88      	ldr	r3, [pc, #544]	; (80028b0 <Init+0x2c4>)
 8002690:	2200      	movs	r2, #0
 8002692:	729a      	strb	r2, [r3, #10]
	Raspberry.UART_TE=UART_TRANSMITTER_ENABLE;
 8002694:	4b86      	ldr	r3, [pc, #536]	; (80028b0 <Init+0x2c4>)
 8002696:	2201      	movs	r2, #1
 8002698:	72da      	strb	r2, [r3, #11]
	Raspberry.UART_RE=UART_RECEIVER_ENABLE;
 800269a:	4b85      	ldr	r3, [pc, #532]	; (80028b0 <Init+0x2c4>)
 800269c:	2201      	movs	r2, #1
 800269e:	731a      	strb	r2, [r3, #12]
	Raspberry.UART_RWU=UART_RECEIVER_ACTIVE_MODE;
 80026a0:	4b83      	ldr	r3, [pc, #524]	; (80028b0 <Init+0x2c4>)
 80026a2:	2200      	movs	r2, #0
 80026a4:	735a      	strb	r2, [r3, #13]
	Raspberry.UART_SBK=UART_NO_BREAK_CHARACTER;
 80026a6:	4b82      	ldr	r3, [pc, #520]	; (80028b0 <Init+0x2c4>)
 80026a8:	2200      	movs	r2, #0
 80026aa:	739a      	strb	r2, [r3, #14]
	Raspberry.UART_BaudRate=9600;
 80026ac:	4b80      	ldr	r3, [pc, #512]	; (80028b0 <Init+0x2c4>)
 80026ae:	f44f 5216 	mov.w	r2, #9600	; 0x2580
 80026b2:	61da      	str	r2, [r3, #28]

	//UART Configuration for Bluetooth communication
	Bluetooth.UART_NUM=UART3;
 80026b4:	4b7f      	ldr	r3, [pc, #508]	; (80028b4 <Init+0x2c8>)
 80026b6:	2202      	movs	r2, #2
 80026b8:	701a      	strb	r2, [r3, #0]
	Bluetooth.UART_ENABLE_STATE=UART_ENABLE;
 80026ba:	4b7e      	ldr	r3, [pc, #504]	; (80028b4 <Init+0x2c8>)
 80026bc:	2201      	movs	r2, #1
 80026be:	705a      	strb	r2, [r3, #1]
	Bluetooth.UART_WORD_LENGTH=UART_EIGHT_BITS;
 80026c0:	4b7c      	ldr	r3, [pc, #496]	; (80028b4 <Init+0x2c8>)
 80026c2:	2200      	movs	r2, #0
 80026c4:	709a      	strb	r2, [r3, #2]
	Bluetooth.UART_WAKEUP=UART_IDLE_LINE;
 80026c6:	4b7b      	ldr	r3, [pc, #492]	; (80028b4 <Init+0x2c8>)
 80026c8:	2200      	movs	r2, #0
 80026ca:	70da      	strb	r2, [r3, #3]
	Bluetooth.UART_PARITY_CONTROL_ENABLE=UART_PARITY_DISABLED;
 80026cc:	4b79      	ldr	r3, [pc, #484]	; (80028b4 <Init+0x2c8>)
 80026ce:	2200      	movs	r2, #0
 80026d0:	711a      	strb	r2, [r3, #4]
	Bluetooth.UART_PARITY_SELECTION=UART_EVEN_PARITY;
 80026d2:	4b78      	ldr	r3, [pc, #480]	; (80028b4 <Init+0x2c8>)
 80026d4:	2200      	movs	r2, #0
 80026d6:	715a      	strb	r2, [r3, #5]
	Bluetooth.UART_PEIE=UART_INTERRUPT_IS_INHIBITED_PE;
 80026d8:	4b76      	ldr	r3, [pc, #472]	; (80028b4 <Init+0x2c8>)
 80026da:	2200      	movs	r2, #0
 80026dc:	719a      	strb	r2, [r3, #6]
	Bluetooth.UART_TXEIE=UART_INTERRUPT_IS_INHIBITED_TXE;
 80026de:	4b75      	ldr	r3, [pc, #468]	; (80028b4 <Init+0x2c8>)
 80026e0:	2200      	movs	r2, #0
 80026e2:	71da      	strb	r2, [r3, #7]
	Bluetooth.UART_TCIE=UART_INTERRUPT_IS_INHIBITED_TC;
 80026e4:	4b73      	ldr	r3, [pc, #460]	; (80028b4 <Init+0x2c8>)
 80026e6:	2200      	movs	r2, #0
 80026e8:	721a      	strb	r2, [r3, #8]
	Bluetooth.UART_RXNEIE=UART_INTERRUPT_ENABLE_RXNE;
 80026ea:	4b72      	ldr	r3, [pc, #456]	; (80028b4 <Init+0x2c8>)
 80026ec:	2201      	movs	r2, #1
 80026ee:	725a      	strb	r2, [r3, #9]
	Bluetooth.UART_IDLEIE=UART_INTERRUPT_IS_INHIBITED_IDLE;
 80026f0:	4b70      	ldr	r3, [pc, #448]	; (80028b4 <Init+0x2c8>)
 80026f2:	2200      	movs	r2, #0
 80026f4:	729a      	strb	r2, [r3, #10]
	Bluetooth.UART_TE=UART_TRANSMITTER_ENABLE;
 80026f6:	4b6f      	ldr	r3, [pc, #444]	; (80028b4 <Init+0x2c8>)
 80026f8:	2201      	movs	r2, #1
 80026fa:	72da      	strb	r2, [r3, #11]
	Bluetooth.UART_RE=UART_RECEIVER_ENABLE;
 80026fc:	4b6d      	ldr	r3, [pc, #436]	; (80028b4 <Init+0x2c8>)
 80026fe:	2201      	movs	r2, #1
 8002700:	731a      	strb	r2, [r3, #12]
	Bluetooth.UART_RWU=UART_RECEIVER_ACTIVE_MODE;
 8002702:	4b6c      	ldr	r3, [pc, #432]	; (80028b4 <Init+0x2c8>)
 8002704:	2200      	movs	r2, #0
 8002706:	735a      	strb	r2, [r3, #13]
	Bluetooth.UART_SBK=UART_NO_BREAK_CHARACTER;
 8002708:	4b6a      	ldr	r3, [pc, #424]	; (80028b4 <Init+0x2c8>)
 800270a:	2200      	movs	r2, #0
 800270c:	739a      	strb	r2, [r3, #14]
	Bluetooth.UART_BaudRate=9600;
 800270e:	4b69      	ldr	r3, [pc, #420]	; (80028b4 <Init+0x2c8>)
 8002710:	f44f 5216 	mov.w	r2, #9600	; 0x2580
 8002714:	61da      	str	r2, [r3, #28]

	/*Initializing RCC and Clocks for Peripherals*/
    MRCC_voidInit();
 8002716:	f7fe fe17 	bl	8001348 <MRCC_voidInit>
    MRCC_voidControlPeripheralsClock(APB2, IOPA, ENABLE_PERIPHERAL);
 800271a:	2201      	movs	r2, #1
 800271c:	2102      	movs	r1, #2
 800271e:	2001      	movs	r0, #1
 8002720:	f7fe ff26 	bl	8001570 <MRCC_voidControlPeripheralsClock>
    MRCC_voidControlPeripheralsClock(APB2, IOPB, ENABLE_PERIPHERAL);
 8002724:	2201      	movs	r2, #1
 8002726:	2103      	movs	r1, #3
 8002728:	2001      	movs	r0, #1
 800272a:	f7fe ff21 	bl	8001570 <MRCC_voidControlPeripheralsClock>
    MRCC_voidControlPeripheralsClock(APB1, I2C1, ENABLE_PERIPHERAL);
 800272e:	2201      	movs	r2, #1
 8002730:	2115      	movs	r1, #21
 8002732:	2000      	movs	r0, #0
 8002734:	f7fe ff1c 	bl	8001570 <MRCC_voidControlPeripheralsClock>
    MRCC_voidControlPeripheralsClock(APB2, ADC1, ENABLE_PERIPHERAL);
 8002738:	2201      	movs	r2, #1
 800273a:	2109      	movs	r1, #9
 800273c:	2001      	movs	r0, #1
 800273e:	f7fe ff17 	bl	8001570 <MRCC_voidControlPeripheralsClock>
    MRCC_voidControlPeripheralsClock(APB1, TIM3, ENABLE_PERIPHERAL);
 8002742:	2201      	movs	r2, #1
 8002744:	2101      	movs	r1, #1
 8002746:	2000      	movs	r0, #0
 8002748:	f7fe ff12 	bl	8001570 <MRCC_voidControlPeripheralsClock>
	MRCC_voidControlPeripheralsClock(APB1, USART3, ENABLE_PERIPHERAL);
 800274c:	2201      	movs	r2, #1
 800274e:	2112      	movs	r1, #18
 8002750:	2000      	movs	r0, #0
 8002752:	f7fe ff0d 	bl	8001570 <MRCC_voidControlPeripheralsClock>
	MRCC_voidControlPeripheralsClock(APB1, USART2, ENABLE_PERIPHERAL);
 8002756:	2201      	movs	r2, #1
 8002758:	2111      	movs	r1, #17
 800275a:	2000      	movs	r0, #0
 800275c:	f7fe ff08 	bl	8001570 <MRCC_voidControlPeripheralsClock>
	MRCC_voidControlPeripheralsClock(APB2, USART1, ENABLE_PERIPHERAL);
 8002760:	2201      	movs	r2, #1
 8002762:	210e      	movs	r1, #14
 8002764:	2001      	movs	r0, #1
 8002766:	f7fe ff03 	bl	8001570 <MRCC_voidControlPeripheralsClock>

	//MotorDrivers Pins
	MDIO_voidSetPinDirection(GPIO_U8_PORTB, GPIO_U8_PIN12, GPIO_U8_OUTPUT_PP_2MHZ);  //right motor cw
 800276a:	2202      	movs	r2, #2
 800276c:	210c      	movs	r1, #12
 800276e:	2001      	movs	r0, #1
 8002770:	f7fe fbe2 	bl	8000f38 <MDIO_voidSetPinDirection>
	MDIO_voidSetPinDirection(GPIO_U8_PORTB, GPIO_U8_PIN13, GPIO_U8_OUTPUT_PP_2MHZ);  //right motor ccw
 8002774:	2202      	movs	r2, #2
 8002776:	210d      	movs	r1, #13
 8002778:	2001      	movs	r0, #1
 800277a:	f7fe fbdd 	bl	8000f38 <MDIO_voidSetPinDirection>
	MDIO_voidSetPinDirection(GPIO_U8_PORTB, GPIO_U8_PIN14, GPIO_U8_OUTPUT_PP_2MHZ); //left motor cw
 800277e:	2202      	movs	r2, #2
 8002780:	210e      	movs	r1, #14
 8002782:	2001      	movs	r0, #1
 8002784:	f7fe fbd8 	bl	8000f38 <MDIO_voidSetPinDirection>
	MDIO_voidSetPinDirection(GPIO_U8_PORTB, GPIO_U8_PIN15, GPIO_U8_OUTPUT_PP_2MHZ); //left motor ccw
 8002788:	2202      	movs	r2, #2
 800278a:	210f      	movs	r1, #15
 800278c:	2001      	movs	r0, #1
 800278e:	f7fe fbd3 	bl	8000f38 <MDIO_voidSetPinDirection>

	//Selector Pins input pull up/down
	MDIO_voidSetPinDirection(GPIO_U8_PORTA, GPIO_U8_PIN11, GPIO_U8_INPUT_PULL_UP_DOWN);
 8002792:	2208      	movs	r2, #8
 8002794:	210b      	movs	r1, #11
 8002796:	2000      	movs	r0, #0
 8002798:	f7fe fbce 	bl	8000f38 <MDIO_voidSetPinDirection>
	MDIO_voidSetPinDirection(GPIO_U8_PORTA, GPIO_U8_PIN12, GPIO_U8_INPUT_PULL_UP_DOWN);
 800279c:	2208      	movs	r2, #8
 800279e:	210c      	movs	r1, #12
 80027a0:	2000      	movs	r0, #0
 80027a2:	f7fe fbc9 	bl	8000f38 <MDIO_voidSetPinDirection>
	MDIO_voidSetPinDirection(GPIO_U8_PORTA, GPIO_U8_PIN15, GPIO_U8_INPUT_PULL_UP_DOWN);
 80027a6:	2208      	movs	r2, #8
 80027a8:	210f      	movs	r1, #15
 80027aa:	2000      	movs	r0, #0
 80027ac:	f7fe fbc4 	bl	8000f38 <MDIO_voidSetPinDirection>
	MDIO_voidSetPinDirection(GPIO_U8_PORTB, GPIO_U8_PIN3, GPIO_U8_INPUT_PULL_UP_DOWN);
 80027b0:	2208      	movs	r2, #8
 80027b2:	2103      	movs	r1, #3
 80027b4:	2001      	movs	r0, #1
 80027b6:	f7fe fbbf 	bl	8000f38 <MDIO_voidSetPinDirection>
	MDIO_voidSetPinDirection(GPIO_U8_PORTB, GPIO_U8_PIN4, GPIO_U8_INPUT_PULL_UP_DOWN);
 80027ba:	2208      	movs	r2, #8
 80027bc:	2104      	movs	r1, #4
 80027be:	2001      	movs	r0, #1
 80027c0:	f7fe fbba 	bl	8000f38 <MDIO_voidSetPinDirection>
	MDIO_voidSetPinDirection(GPIO_U8_PORTB, GPIO_U8_PIN5, GPIO_U8_INPUT_PULL_UP_DOWN);
 80027c4:	2208      	movs	r2, #8
 80027c6:	2105      	movs	r1, #5
 80027c8:	2001      	movs	r0, #1
 80027ca:	f7fe fbb5 	bl	8000f38 <MDIO_voidSetPinDirection>

	//pull up
	MDIO_voidSetPinValue(GPIO_U8_PORTA, GPIO_U8_PIN11, GPIO_U8_HIGH);
 80027ce:	2201      	movs	r2, #1
 80027d0:	210b      	movs	r1, #11
 80027d2:	2000      	movs	r0, #0
 80027d4:	f7fe fc88 	bl	80010e8 <MDIO_voidSetPinValue>
	MDIO_voidSetPinValue(GPIO_U8_PORTA, GPIO_U8_PIN12, GPIO_U8_HIGH);
 80027d8:	2201      	movs	r2, #1
 80027da:	210c      	movs	r1, #12
 80027dc:	2000      	movs	r0, #0
 80027de:	f7fe fc83 	bl	80010e8 <MDIO_voidSetPinValue>
	MDIO_voidSetPinValue(GPIO_U8_PORTA, GPIO_U8_PIN15, GPIO_U8_HIGH);
 80027e2:	2201      	movs	r2, #1
 80027e4:	210f      	movs	r1, #15
 80027e6:	2000      	movs	r0, #0
 80027e8:	f7fe fc7e 	bl	80010e8 <MDIO_voidSetPinValue>
	MDIO_voidSetPinValue(GPIO_U8_PORTB, GPIO_U8_PIN3, GPIO_U8_HIGH);
 80027ec:	2201      	movs	r2, #1
 80027ee:	2103      	movs	r1, #3
 80027f0:	2001      	movs	r0, #1
 80027f2:	f7fe fc79 	bl	80010e8 <MDIO_voidSetPinValue>
	MDIO_voidSetPinValue(GPIO_U8_PORTB, GPIO_U8_PIN4, GPIO_U8_HIGH);
 80027f6:	2201      	movs	r2, #1
 80027f8:	2104      	movs	r1, #4
 80027fa:	2001      	movs	r0, #1
 80027fc:	f7fe fc74 	bl	80010e8 <MDIO_voidSetPinValue>
	MDIO_voidSetPinValue(GPIO_U8_PORTB, GPIO_U8_PIN5, GPIO_U8_HIGH);
 8002800:	2201      	movs	r2, #1
 8002802:	2105      	movs	r1, #5
 8002804:	2001      	movs	r0, #1
 8002806:	f7fe fc6f 	bl	80010e8 <MDIO_voidSetPinValue>

	//PWM Pins (TIM3 Channel 1 and Channel 2)
    MDIO_voidSetPinDirection(GPIO_U8_PORTA, GPIO_U8_PIN6, GPIO_U8_OUTPUT_AF_PP_2MHZ); //right motor speed
 800280a:	220a      	movs	r2, #10
 800280c:	2106      	movs	r1, #6
 800280e:	2000      	movs	r0, #0
 8002810:	f7fe fb92 	bl	8000f38 <MDIO_voidSetPinDirection>
    MDIO_voidSetPinDirection(GPIO_U8_PORTA, GPIO_U8_PIN7, GPIO_U8_OUTPUT_AF_PP_2MHZ); //left motor speed
 8002814:	220a      	movs	r2, #10
 8002816:	2107      	movs	r1, #7
 8002818:	2000      	movs	r0, #0
 800281a:	f7fe fb8d 	bl	8000f38 <MDIO_voidSetPinDirection>

    //ADC Pins (Channel 0 and Channel 1)
	MDIO_voidSetPinDirection(GPIO_U8_PORTA, GPIO_U8_PIN0, GPIO_U8_INPUT_ANALOG);
 800281e:	2200      	movs	r2, #0
 8002820:	2100      	movs	r1, #0
 8002822:	2000      	movs	r0, #0
 8002824:	f7fe fb88 	bl	8000f38 <MDIO_voidSetPinDirection>
	MDIO_voidSetPinDirection(GPIO_U8_PORTA, GPIO_U8_PIN1, GPIO_U8_INPUT_ANALOG);
 8002828:	2200      	movs	r2, #0
 800282a:	2101      	movs	r1, #1
 800282c:	2000      	movs	r0, #0
 800282e:	f7fe fb83 	bl	8000f38 <MDIO_voidSetPinDirection>
	//I2C1 Pins
    //MDIO_voidSetPinDirection(GPIO_U8_PORTB, GPIO_U8_PIN6, GPIO_U8_OUTPUT_AF_OD_2MHZ);
    //MDIO_voidSetPinDirection(GPIO_U8_PORTB, GPIO_U8_PIN7, GPIO_U8_OUTPUT_AF_OD_2MHZ);

    //UART3 Pins
	MDIO_voidSetPinDirection(GPIO_U8_PORTB, GPIO_U8_PIN10, GPIO_U8_OUTPUT_AF_PP_2MHZ);
 8002832:	220a      	movs	r2, #10
 8002834:	210a      	movs	r1, #10
 8002836:	2001      	movs	r0, #1
 8002838:	f7fe fb7e 	bl	8000f38 <MDIO_voidSetPinDirection>
	MDIO_voidSetPinDirection(GPIO_U8_PORTB, GPIO_U8_PIN11, GPIO_U8_INPUT_FLOATING);
 800283c:	2204      	movs	r2, #4
 800283e:	210b      	movs	r1, #11
 8002840:	2001      	movs	r0, #1
 8002842:	f7fe fb79 	bl	8000f38 <MDIO_voidSetPinDirection>
	//UART2 Pins
	MDIO_voidSetPinDirection(GPIO_U8_PORTA, GPIO_U8_PIN2, GPIO_U8_OUTPUT_AF_PP_2MHZ);
 8002846:	220a      	movs	r2, #10
 8002848:	2102      	movs	r1, #2
 800284a:	2000      	movs	r0, #0
 800284c:	f7fe fb74 	bl	8000f38 <MDIO_voidSetPinDirection>
	MDIO_voidSetPinDirection(GPIO_U8_PORTA, GPIO_U8_PIN3, GPIO_U8_INPUT_FLOATING);
 8002850:	2204      	movs	r2, #4
 8002852:	2103      	movs	r1, #3
 8002854:	2000      	movs	r0, #0
 8002856:	f7fe fb6f 	bl	8000f38 <MDIO_voidSetPinDirection>
	//UART1 Pins
	MDIO_voidSetPinDirection(GPIO_U8_PORTA, GPIO_U8_PIN9, GPIO_U8_OUTPUT_AF_PP_2MHZ);
 800285a:	220a      	movs	r2, #10
 800285c:	2109      	movs	r1, #9
 800285e:	2000      	movs	r0, #0
 8002860:	f7fe fb6a 	bl	8000f38 <MDIO_voidSetPinDirection>
	MDIO_voidSetPinDirection(GPIO_U8_PORTA, GPIO_U8_PIN10, GPIO_U8_INPUT_FLOATING);
 8002864:	2204      	movs	r2, #4
 8002866:	210a      	movs	r1, #10
 8002868:	2000      	movs	r0, #0
 800286a:	f7fe fb65 	bl	8000f38 <MDIO_voidSetPinDirection>

	MUART_voidInit(&Debug);
 800286e:	480f      	ldr	r0, [pc, #60]	; (80028ac <Init+0x2c0>)
 8002870:	f7ff fa26 	bl	8001cc0 <MUART_voidInit>
	MUART_voidInit(&Raspberry);
 8002874:	480e      	ldr	r0, [pc, #56]	; (80028b0 <Init+0x2c4>)
 8002876:	f7ff fa23 	bl	8001cc0 <MUART_voidInit>
	MUART_voidInit(&Bluetooth);
 800287a:	480e      	ldr	r0, [pc, #56]	; (80028b4 <Init+0x2c8>)
 800287c:	f7ff fa20 	bl	8001cc0 <MUART_voidInit>

	MPWM_voidInit();
 8002880:	f7fe fd0c 	bl	800129c <MPWM_voidInit>
	MSTK_voidInit();
 8002884:	f7ff f9c0 	bl	8001c08 <MSTK_voidInit>

	//UART2, UART3 Enable Interrupt
	MNVIC_voidInit();
 8002888:	f7fe fcca 	bl	8001220 <MNVIC_voidInit>
	MNVIC_voidEnableInterrupt(38); //UART2
 800288c:	2026      	movs	r0, #38	; 0x26
 800288e:	f7fe fcd5 	bl	800123c <MNVIC_voidEnableInterrupt>
	MUART2_voidSetCallBack(GetDataFromRaspberryPi);
 8002892:	4809      	ldr	r0, [pc, #36]	; (80028b8 <Init+0x2cc>)
 8002894:	f7ff fbea 	bl	800206c <MUART2_voidSetCallBack>
	MNVIC_voidEnableInterrupt(39); //UART3
 8002898:	2027      	movs	r0, #39	; 0x27
 800289a:	f7fe fccf 	bl	800123c <MNVIC_voidEnableInterrupt>
	MUART3_voidSetCallBack(GetDataFromBluetooth);
 800289e:	4807      	ldr	r0, [pc, #28]	; (80028bc <Init+0x2d0>)
 80028a0:	f7ff fc00 	bl	80020a4 <MUART3_voidSetCallBack>

	MADC1_voidInit();
 80028a4:	f7fe faca 	bl	8000e3c <MADC1_voidInit>

    //MI2C_MasterInit();

}
 80028a8:	bf00      	nop
 80028aa:	bd80      	pop	{r7, pc}
 80028ac:	200000c4 	.word	0x200000c4
 80028b0:	200000a4 	.word	0x200000a4
 80028b4:	20000070 	.word	0x20000070
 80028b8:	08002561 	.word	0x08002561
 80028bc:	080025c1 	.word	0x080025c1

080028c0 <ControlWheelchairUsingJoystick>:
	MUART_voidSendInteger(&Debug, temperature);
	MUART_voidTransmitCharSync(&Debug, '\r');
	MUART_voidTransmitCharSync(&Debug, '\n');
}
void ControlWheelchairUsingJoystick()
{
 80028c0:	b580      	push	{r7, lr}
 80028c2:	af00      	add	r7, sp, #0
	//ADC
	ADC_DATA_Y = MADC1_u16StartConversion_Channel_0();
 80028c4:	f7fe fae2 	bl	8000e8c <MADC1_u16StartConversion_Channel_0>
 80028c8:	4603      	mov	r3, r0
 80028ca:	461a      	mov	r2, r3
 80028cc:	4b37      	ldr	r3, [pc, #220]	; (80029ac <ControlWheelchairUsingJoystick+0xec>)
 80028ce:	801a      	strh	r2, [r3, #0]
	ADC_DATA_X = MADC1_u16StartConversion_Channel_1();
 80028d0:	f7fe fb06 	bl	8000ee0 <MADC1_u16StartConversion_Channel_1>
 80028d4:	4603      	mov	r3, r0
 80028d6:	461a      	mov	r2, r3
 80028d8:	4b35      	ldr	r3, [pc, #212]	; (80029b0 <ControlWheelchairUsingJoystick+0xf0>)
 80028da:	801a      	strh	r2, [r3, #0]
	if(ADC_DATA_Y>3072)
 80028dc:	4b33      	ldr	r3, [pc, #204]	; (80029ac <ControlWheelchairUsingJoystick+0xec>)
 80028de:	881b      	ldrh	r3, [r3, #0]
 80028e0:	f5b3 6f40 	cmp.w	r3, #3072	; 0xc00
 80028e4:	d91e      	bls.n	8002924 <ControlWheelchairUsingJoystick+0x64>
	{
		if(ADC_DATA_X>3072)
 80028e6:	4b32      	ldr	r3, [pc, #200]	; (80029b0 <ControlWheelchairUsingJoystick+0xf0>)
 80028e8:	881b      	ldrh	r3, [r3, #0]
 80028ea:	f5b3 6f40 	cmp.w	r3, #3072	; 0xc00
 80028ee:	d906      	bls.n	80028fe <ControlWheelchairUsingJoystick+0x3e>
		{
			MUART_voidTransmitSync(&Debug, (u8* ) "RIGHT FORWARD\r\n");
 80028f0:	4930      	ldr	r1, [pc, #192]	; (80029b4 <ControlWheelchairUsingJoystick+0xf4>)
 80028f2:	4831      	ldr	r0, [pc, #196]	; (80029b8 <ControlWheelchairUsingJoystick+0xf8>)
 80028f4:	f7ff fb7e 	bl	8001ff4 <MUART_voidTransmitSync>
			WheelChair_RightForward();
 80028f8:	f000 f90e 	bl	8002b18 <WheelChair_RightForward>
		{
			MUART_voidTransmitSync(&Debug, (u8* ) "STOP\r\n");
			WheelChair_Stop();
		}
	}
}
 80028fc:	e054      	b.n	80029a8 <ControlWheelchairUsingJoystick+0xe8>
		else if(ADC_DATA_X<1024)
 80028fe:	4b2c      	ldr	r3, [pc, #176]	; (80029b0 <ControlWheelchairUsingJoystick+0xf0>)
 8002900:	881b      	ldrh	r3, [r3, #0]
 8002902:	f5b3 6f80 	cmp.w	r3, #1024	; 0x400
 8002906:	d206      	bcs.n	8002916 <ControlWheelchairUsingJoystick+0x56>
			MUART_voidTransmitSync(&Debug, (u8* ) "LEFT FORWARD\r\n");
 8002908:	492c      	ldr	r1, [pc, #176]	; (80029bc <ControlWheelchairUsingJoystick+0xfc>)
 800290a:	482b      	ldr	r0, [pc, #172]	; (80029b8 <ControlWheelchairUsingJoystick+0xf8>)
 800290c:	f7ff fb72 	bl	8001ff4 <MUART_voidTransmitSync>
			WheelChair_LeftForward();
 8002910:	f000 f922 	bl	8002b58 <WheelChair_LeftForward>
}
 8002914:	e048      	b.n	80029a8 <ControlWheelchairUsingJoystick+0xe8>
			MUART_voidTransmitSync(&Debug, (u8* ) "FORWARD\r\n");
 8002916:	492a      	ldr	r1, [pc, #168]	; (80029c0 <ControlWheelchairUsingJoystick+0x100>)
 8002918:	4827      	ldr	r0, [pc, #156]	; (80029b8 <ControlWheelchairUsingJoystick+0xf8>)
 800291a:	f7ff fb6b 	bl	8001ff4 <MUART_voidTransmitSync>
			WheelChair_Forward();
 800291e:	f000 f85d 	bl	80029dc <WheelChair_Forward>
}
 8002922:	e041      	b.n	80029a8 <ControlWheelchairUsingJoystick+0xe8>
	else if(ADC_DATA_Y<1024)
 8002924:	4b21      	ldr	r3, [pc, #132]	; (80029ac <ControlWheelchairUsingJoystick+0xec>)
 8002926:	881b      	ldrh	r3, [r3, #0]
 8002928:	f5b3 6f80 	cmp.w	r3, #1024	; 0x400
 800292c:	d21e      	bcs.n	800296c <ControlWheelchairUsingJoystick+0xac>
		if(ADC_DATA_X>3072)
 800292e:	4b20      	ldr	r3, [pc, #128]	; (80029b0 <ControlWheelchairUsingJoystick+0xf0>)
 8002930:	881b      	ldrh	r3, [r3, #0]
 8002932:	f5b3 6f40 	cmp.w	r3, #3072	; 0xc00
 8002936:	d906      	bls.n	8002946 <ControlWheelchairUsingJoystick+0x86>
			MUART_voidTransmitSync(&Debug, (u8* ) "RIGHT BACKWARD\r\n");
 8002938:	4922      	ldr	r1, [pc, #136]	; (80029c4 <ControlWheelchairUsingJoystick+0x104>)
 800293a:	481f      	ldr	r0, [pc, #124]	; (80029b8 <ControlWheelchairUsingJoystick+0xf8>)
 800293c:	f7ff fb5a 	bl	8001ff4 <MUART_voidTransmitSync>
			WheelChair_RightBackward();
 8002940:	f000 f92a 	bl	8002b98 <WheelChair_RightBackward>
}
 8002944:	e030      	b.n	80029a8 <ControlWheelchairUsingJoystick+0xe8>
		else if(ADC_DATA_X<1024)
 8002946:	4b1a      	ldr	r3, [pc, #104]	; (80029b0 <ControlWheelchairUsingJoystick+0xf0>)
 8002948:	881b      	ldrh	r3, [r3, #0]
 800294a:	f5b3 6f80 	cmp.w	r3, #1024	; 0x400
 800294e:	d206      	bcs.n	800295e <ControlWheelchairUsingJoystick+0x9e>
			MUART_voidTransmitSync(&Debug, (u8* ) "LEFT BACKWARD\r\n");
 8002950:	491d      	ldr	r1, [pc, #116]	; (80029c8 <ControlWheelchairUsingJoystick+0x108>)
 8002952:	4819      	ldr	r0, [pc, #100]	; (80029b8 <ControlWheelchairUsingJoystick+0xf8>)
 8002954:	f7ff fb4e 	bl	8001ff4 <MUART_voidTransmitSync>
			WheelChair_LeftBackward();
 8002958:	f000 f93e 	bl	8002bd8 <WheelChair_LeftBackward>
}
 800295c:	e024      	b.n	80029a8 <ControlWheelchairUsingJoystick+0xe8>
			MUART_voidTransmitSync(&Debug, (u8* ) "BACKWARD\r\n");
 800295e:	491b      	ldr	r1, [pc, #108]	; (80029cc <ControlWheelchairUsingJoystick+0x10c>)
 8002960:	4815      	ldr	r0, [pc, #84]	; (80029b8 <ControlWheelchairUsingJoystick+0xf8>)
 8002962:	f7ff fb47 	bl	8001ff4 <MUART_voidTransmitSync>
			WheelChair_Backward();
 8002966:	f000 f859 	bl	8002a1c <WheelChair_Backward>
}
 800296a:	e01d      	b.n	80029a8 <ControlWheelchairUsingJoystick+0xe8>
		if(ADC_DATA_X>3072)
 800296c:	4b10      	ldr	r3, [pc, #64]	; (80029b0 <ControlWheelchairUsingJoystick+0xf0>)
 800296e:	881b      	ldrh	r3, [r3, #0]
 8002970:	f5b3 6f40 	cmp.w	r3, #3072	; 0xc00
 8002974:	d906      	bls.n	8002984 <ControlWheelchairUsingJoystick+0xc4>
			MUART_voidTransmitSync(&Debug, (u8* ) "RIGHT\r\n");
 8002976:	4916      	ldr	r1, [pc, #88]	; (80029d0 <ControlWheelchairUsingJoystick+0x110>)
 8002978:	480f      	ldr	r0, [pc, #60]	; (80029b8 <ControlWheelchairUsingJoystick+0xf8>)
 800297a:	f7ff fb3b 	bl	8001ff4 <MUART_voidTransmitSync>
			WheelChair_Right();
 800297e:	f000 f86d 	bl	8002a5c <WheelChair_Right>
}
 8002982:	e011      	b.n	80029a8 <ControlWheelchairUsingJoystick+0xe8>
		else if(ADC_DATA_X<1024)
 8002984:	4b0a      	ldr	r3, [pc, #40]	; (80029b0 <ControlWheelchairUsingJoystick+0xf0>)
 8002986:	881b      	ldrh	r3, [r3, #0]
 8002988:	f5b3 6f80 	cmp.w	r3, #1024	; 0x400
 800298c:	d206      	bcs.n	800299c <ControlWheelchairUsingJoystick+0xdc>
			MUART_voidTransmitSync(&Debug, (u8* ) "LEFT\r\n");
 800298e:	4911      	ldr	r1, [pc, #68]	; (80029d4 <ControlWheelchairUsingJoystick+0x114>)
 8002990:	4809      	ldr	r0, [pc, #36]	; (80029b8 <ControlWheelchairUsingJoystick+0xf8>)
 8002992:	f7ff fb2f 	bl	8001ff4 <MUART_voidTransmitSync>
			WheelChair_Left();
 8002996:	f000 f881 	bl	8002a9c <WheelChair_Left>
}
 800299a:	e005      	b.n	80029a8 <ControlWheelchairUsingJoystick+0xe8>
			MUART_voidTransmitSync(&Debug, (u8* ) "STOP\r\n");
 800299c:	490e      	ldr	r1, [pc, #56]	; (80029d8 <ControlWheelchairUsingJoystick+0x118>)
 800299e:	4806      	ldr	r0, [pc, #24]	; (80029b8 <ControlWheelchairUsingJoystick+0xf8>)
 80029a0:	f7ff fb28 	bl	8001ff4 <MUART_voidTransmitSync>
			WheelChair_Stop();
 80029a4:	f000 f89a 	bl	8002adc <WheelChair_Stop>
}
 80029a8:	bf00      	nop
 80029aa:	bd80      	pop	{r7, pc}
 80029ac:	20000050 	.word	0x20000050
 80029b0:	20000052 	.word	0x20000052
 80029b4:	08002e6c 	.word	0x08002e6c
 80029b8:	200000c4 	.word	0x200000c4
 80029bc:	08002e7c 	.word	0x08002e7c
 80029c0:	08002ddc 	.word	0x08002ddc
 80029c4:	08002e8c 	.word	0x08002e8c
 80029c8:	08002ea0 	.word	0x08002ea0
 80029cc:	08002df4 	.word	0x08002df4
 80029d0:	08002e08 	.word	0x08002e08
 80029d4:	08002e18 	.word	0x08002e18
 80029d8:	08002dc8 	.word	0x08002dc8

080029dc <WheelChair_Forward>:
void WheelChair_Forward()
{
 80029dc:	b580      	push	{r7, lr}
 80029de:	af00      	add	r7, sp, #0
	//MotorDrivers Pins
	MDIO_voidSetPinValue(GPIO_U8_PORTB, GPIO_U8_PIN12, GPIO_U8_HIGH);  //right motor cw
 80029e0:	2201      	movs	r2, #1
 80029e2:	210c      	movs	r1, #12
 80029e4:	2001      	movs	r0, #1
 80029e6:	f7fe fb7f 	bl	80010e8 <MDIO_voidSetPinValue>
	MDIO_voidSetPinValue(GPIO_U8_PORTB, GPIO_U8_PIN13, GPIO_U8_LOW);  //right motor ccw
 80029ea:	2200      	movs	r2, #0
 80029ec:	210d      	movs	r1, #13
 80029ee:	2001      	movs	r0, #1
 80029f0:	f7fe fb7a 	bl	80010e8 <MDIO_voidSetPinValue>
	MDIO_voidSetPinValue(GPIO_U8_PORTB, GPIO_U8_PIN14, GPIO_U8_HIGH); //left motor cw
 80029f4:	2201      	movs	r2, #1
 80029f6:	210e      	movs	r1, #14
 80029f8:	2001      	movs	r0, #1
 80029fa:	f7fe fb75 	bl	80010e8 <MDIO_voidSetPinValue>
	MDIO_voidSetPinValue(GPIO_U8_PORTB, GPIO_U8_PIN15, GPIO_U8_LOW); //left motor ccw
 80029fe:	2200      	movs	r2, #0
 8002a00:	210f      	movs	r1, #15
 8002a02:	2001      	movs	r0, #1
 8002a04:	f7fe fb70 	bl	80010e8 <MDIO_voidSetPinValue>
	//PWM Pins (TIM3 Channel 1 and Channel 2)
	MPWM_voidChannel_1_SetValue(MOTORS_PWN_MAX_SPEED_VALUE); //right motor speed
 8002a08:	f44f 70fa 	mov.w	r0, #500	; 0x1f4
 8002a0c:	f7fe fc7c 	bl	8001308 <MPWM_voidChannel_1_SetValue>
	MPWM_voidChannel_2_SetValue(MOTORS_PWN_MAX_SPEED_VALUE); //left motor speed
 8002a10:	f44f 70fa 	mov.w	r0, #500	; 0x1f4
 8002a14:	f7fe fc88 	bl	8001328 <MPWM_voidChannel_2_SetValue>
}
 8002a18:	bf00      	nop
 8002a1a:	bd80      	pop	{r7, pc}

08002a1c <WheelChair_Backward>:
void WheelChair_Backward()
{
 8002a1c:	b580      	push	{r7, lr}
 8002a1e:	af00      	add	r7, sp, #0
	//MotorDrivers Pins
	MDIO_voidSetPinValue(GPIO_U8_PORTB, GPIO_U8_PIN12, GPIO_U8_LOW);  //right motor cw
 8002a20:	2200      	movs	r2, #0
 8002a22:	210c      	movs	r1, #12
 8002a24:	2001      	movs	r0, #1
 8002a26:	f7fe fb5f 	bl	80010e8 <MDIO_voidSetPinValue>
	MDIO_voidSetPinValue(GPIO_U8_PORTB, GPIO_U8_PIN13, GPIO_U8_HIGH);  //right motor ccw
 8002a2a:	2201      	movs	r2, #1
 8002a2c:	210d      	movs	r1, #13
 8002a2e:	2001      	movs	r0, #1
 8002a30:	f7fe fb5a 	bl	80010e8 <MDIO_voidSetPinValue>
	MDIO_voidSetPinValue(GPIO_U8_PORTB, GPIO_U8_PIN14, GPIO_U8_LOW); //left motor cw
 8002a34:	2200      	movs	r2, #0
 8002a36:	210e      	movs	r1, #14
 8002a38:	2001      	movs	r0, #1
 8002a3a:	f7fe fb55 	bl	80010e8 <MDIO_voidSetPinValue>
	MDIO_voidSetPinValue(GPIO_U8_PORTB, GPIO_U8_PIN15, GPIO_U8_HIGH); //left motor ccw
 8002a3e:	2201      	movs	r2, #1
 8002a40:	210f      	movs	r1, #15
 8002a42:	2001      	movs	r0, #1
 8002a44:	f7fe fb50 	bl	80010e8 <MDIO_voidSetPinValue>
	//PWM Pins (TIM3 Channel 1 and Channel 2)
	MPWM_voidChannel_1_SetValue(MOTORS_PWN_MAX_SPEED_VALUE); //right motor speed
 8002a48:	f44f 70fa 	mov.w	r0, #500	; 0x1f4
 8002a4c:	f7fe fc5c 	bl	8001308 <MPWM_voidChannel_1_SetValue>
	MPWM_voidChannel_2_SetValue(MOTORS_PWN_MAX_SPEED_VALUE); //left motor speed
 8002a50:	f44f 70fa 	mov.w	r0, #500	; 0x1f4
 8002a54:	f7fe fc68 	bl	8001328 <MPWM_voidChannel_2_SetValue>
}
 8002a58:	bf00      	nop
 8002a5a:	bd80      	pop	{r7, pc}

08002a5c <WheelChair_Right>:
void WheelChair_Right()
{
 8002a5c:	b580      	push	{r7, lr}
 8002a5e:	af00      	add	r7, sp, #0
	//MotorDrivers Pins
	MDIO_voidSetPinValue(GPIO_U8_PORTB, GPIO_U8_PIN12, GPIO_U8_LOW);  //right motor cw
 8002a60:	2200      	movs	r2, #0
 8002a62:	210c      	movs	r1, #12
 8002a64:	2001      	movs	r0, #1
 8002a66:	f7fe fb3f 	bl	80010e8 <MDIO_voidSetPinValue>
	MDIO_voidSetPinValue(GPIO_U8_PORTB, GPIO_U8_PIN13, GPIO_U8_HIGH);  //right motor ccw
 8002a6a:	2201      	movs	r2, #1
 8002a6c:	210d      	movs	r1, #13
 8002a6e:	2001      	movs	r0, #1
 8002a70:	f7fe fb3a 	bl	80010e8 <MDIO_voidSetPinValue>
	MDIO_voidSetPinValue(GPIO_U8_PORTB, GPIO_U8_PIN14, GPIO_U8_HIGH); //left motor cw
 8002a74:	2201      	movs	r2, #1
 8002a76:	210e      	movs	r1, #14
 8002a78:	2001      	movs	r0, #1
 8002a7a:	f7fe fb35 	bl	80010e8 <MDIO_voidSetPinValue>
	MDIO_voidSetPinValue(GPIO_U8_PORTB, GPIO_U8_PIN15, GPIO_U8_LOW); //left motor ccw
 8002a7e:	2200      	movs	r2, #0
 8002a80:	210f      	movs	r1, #15
 8002a82:	2001      	movs	r0, #1
 8002a84:	f7fe fb30 	bl	80010e8 <MDIO_voidSetPinValue>
	//PWM Pins (TIM3 Channel 1 and Channel 2)
	MPWM_voidChannel_1_SetValue(MOTORS_PWN_MAX_SPEED_VALUE); //right motor speed
 8002a88:	f44f 70fa 	mov.w	r0, #500	; 0x1f4
 8002a8c:	f7fe fc3c 	bl	8001308 <MPWM_voidChannel_1_SetValue>
	MPWM_voidChannel_2_SetValue(MOTORS_PWN_MAX_SPEED_VALUE); //left motor speed
 8002a90:	f44f 70fa 	mov.w	r0, #500	; 0x1f4
 8002a94:	f7fe fc48 	bl	8001328 <MPWM_voidChannel_2_SetValue>
}
 8002a98:	bf00      	nop
 8002a9a:	bd80      	pop	{r7, pc}

08002a9c <WheelChair_Left>:
void WheelChair_Left()
{
 8002a9c:	b580      	push	{r7, lr}
 8002a9e:	af00      	add	r7, sp, #0
	//MotorDrivers Pins
	MDIO_voidSetPinValue(GPIO_U8_PORTB, GPIO_U8_PIN12, GPIO_U8_HIGH);  //right motor cw
 8002aa0:	2201      	movs	r2, #1
 8002aa2:	210c      	movs	r1, #12
 8002aa4:	2001      	movs	r0, #1
 8002aa6:	f7fe fb1f 	bl	80010e8 <MDIO_voidSetPinValue>
	MDIO_voidSetPinValue(GPIO_U8_PORTB, GPIO_U8_PIN13, GPIO_U8_LOW);  //right motor ccw
 8002aaa:	2200      	movs	r2, #0
 8002aac:	210d      	movs	r1, #13
 8002aae:	2001      	movs	r0, #1
 8002ab0:	f7fe fb1a 	bl	80010e8 <MDIO_voidSetPinValue>
	MDIO_voidSetPinValue(GPIO_U8_PORTB, GPIO_U8_PIN14, GPIO_U8_LOW); //left motor cw
 8002ab4:	2200      	movs	r2, #0
 8002ab6:	210e      	movs	r1, #14
 8002ab8:	2001      	movs	r0, #1
 8002aba:	f7fe fb15 	bl	80010e8 <MDIO_voidSetPinValue>
	MDIO_voidSetPinValue(GPIO_U8_PORTB, GPIO_U8_PIN15, GPIO_U8_HIGH); //left motor ccw
 8002abe:	2201      	movs	r2, #1
 8002ac0:	210f      	movs	r1, #15
 8002ac2:	2001      	movs	r0, #1
 8002ac4:	f7fe fb10 	bl	80010e8 <MDIO_voidSetPinValue>
	//PWM Pins (TIM3 Channel 1 and Channel 2)
	MPWM_voidChannel_1_SetValue(MOTORS_PWN_MAX_SPEED_VALUE); //right motor speed
 8002ac8:	f44f 70fa 	mov.w	r0, #500	; 0x1f4
 8002acc:	f7fe fc1c 	bl	8001308 <MPWM_voidChannel_1_SetValue>
	MPWM_voidChannel_2_SetValue(MOTORS_PWN_MAX_SPEED_VALUE); //left motor speed
 8002ad0:	f44f 70fa 	mov.w	r0, #500	; 0x1f4
 8002ad4:	f7fe fc28 	bl	8001328 <MPWM_voidChannel_2_SetValue>
}
 8002ad8:	bf00      	nop
 8002ada:	bd80      	pop	{r7, pc}

08002adc <WheelChair_Stop>:
void WheelChair_Stop()
{
 8002adc:	b580      	push	{r7, lr}
 8002ade:	af00      	add	r7, sp, #0
	//MotorDrivers Pins
	MDIO_voidSetPinValue(GPIO_U8_PORTB, GPIO_U8_PIN12, GPIO_U8_LOW);  //right motor cw
 8002ae0:	2200      	movs	r2, #0
 8002ae2:	210c      	movs	r1, #12
 8002ae4:	2001      	movs	r0, #1
 8002ae6:	f7fe faff 	bl	80010e8 <MDIO_voidSetPinValue>
	MDIO_voidSetPinValue(GPIO_U8_PORTB, GPIO_U8_PIN13, GPIO_U8_LOW);  //right motor ccw
 8002aea:	2200      	movs	r2, #0
 8002aec:	210d      	movs	r1, #13
 8002aee:	2001      	movs	r0, #1
 8002af0:	f7fe fafa 	bl	80010e8 <MDIO_voidSetPinValue>
	MDIO_voidSetPinValue(GPIO_U8_PORTB, GPIO_U8_PIN14, GPIO_U8_LOW); //left motor cw
 8002af4:	2200      	movs	r2, #0
 8002af6:	210e      	movs	r1, #14
 8002af8:	2001      	movs	r0, #1
 8002afa:	f7fe faf5 	bl	80010e8 <MDIO_voidSetPinValue>
	MDIO_voidSetPinValue(GPIO_U8_PORTB, GPIO_U8_PIN15, GPIO_U8_LOW); //left motor ccw
 8002afe:	2200      	movs	r2, #0
 8002b00:	210f      	movs	r1, #15
 8002b02:	2001      	movs	r0, #1
 8002b04:	f7fe faf0 	bl	80010e8 <MDIO_voidSetPinValue>
	//PWM Pins (TIM3 Channel 1 and Channel 2)
	MPWM_voidChannel_1_SetValue(0); //right motor speed
 8002b08:	2000      	movs	r0, #0
 8002b0a:	f7fe fbfd 	bl	8001308 <MPWM_voidChannel_1_SetValue>
	MPWM_voidChannel_2_SetValue(0); //left motor speed
 8002b0e:	2000      	movs	r0, #0
 8002b10:	f7fe fc0a 	bl	8001328 <MPWM_voidChannel_2_SetValue>
}
 8002b14:	bf00      	nop
 8002b16:	bd80      	pop	{r7, pc}

08002b18 <WheelChair_RightForward>:
void WheelChair_RightForward()
{
 8002b18:	b580      	push	{r7, lr}
 8002b1a:	af00      	add	r7, sp, #0
	//MotorDrivers Pins
	MDIO_voidSetPinValue(GPIO_U8_PORTB, GPIO_U8_PIN12, GPIO_U8_HIGH);  //right motor cw
 8002b1c:	2201      	movs	r2, #1
 8002b1e:	210c      	movs	r1, #12
 8002b20:	2001      	movs	r0, #1
 8002b22:	f7fe fae1 	bl	80010e8 <MDIO_voidSetPinValue>
	MDIO_voidSetPinValue(GPIO_U8_PORTB, GPIO_U8_PIN13, GPIO_U8_LOW);  //right motor ccw
 8002b26:	2200      	movs	r2, #0
 8002b28:	210d      	movs	r1, #13
 8002b2a:	2001      	movs	r0, #1
 8002b2c:	f7fe fadc 	bl	80010e8 <MDIO_voidSetPinValue>
	MDIO_voidSetPinValue(GPIO_U8_PORTB, GPIO_U8_PIN14, GPIO_U8_HIGH); //left motor cw
 8002b30:	2201      	movs	r2, #1
 8002b32:	210e      	movs	r1, #14
 8002b34:	2001      	movs	r0, #1
 8002b36:	f7fe fad7 	bl	80010e8 <MDIO_voidSetPinValue>
	MDIO_voidSetPinValue(GPIO_U8_PORTB, GPIO_U8_PIN15, GPIO_U8_LOW); //left motor ccw
 8002b3a:	2200      	movs	r2, #0
 8002b3c:	210f      	movs	r1, #15
 8002b3e:	2001      	movs	r0, #1
 8002b40:	f7fe fad2 	bl	80010e8 <MDIO_voidSetPinValue>
	//PWM Pins (TIM3 Channel 1 and Channel 2)
	MPWM_voidChannel_1_SetValue(MOTORS_PWN_HALF_SPEED_VALUE); //right motor speed
 8002b44:	f44f 7096 	mov.w	r0, #300	; 0x12c
 8002b48:	f7fe fbde 	bl	8001308 <MPWM_voidChannel_1_SetValue>
	MPWM_voidChannel_2_SetValue(MOTORS_PWN_MAX_SPEED_VALUE); //left motor speed
 8002b4c:	f44f 70fa 	mov.w	r0, #500	; 0x1f4
 8002b50:	f7fe fbea 	bl	8001328 <MPWM_voidChannel_2_SetValue>
}
 8002b54:	bf00      	nop
 8002b56:	bd80      	pop	{r7, pc}

08002b58 <WheelChair_LeftForward>:
void WheelChair_LeftForward()
{
 8002b58:	b580      	push	{r7, lr}
 8002b5a:	af00      	add	r7, sp, #0
	//MotorDrivers Pins
	MDIO_voidSetPinValue(GPIO_U8_PORTB, GPIO_U8_PIN12, GPIO_U8_HIGH);  //right motor cw
 8002b5c:	2201      	movs	r2, #1
 8002b5e:	210c      	movs	r1, #12
 8002b60:	2001      	movs	r0, #1
 8002b62:	f7fe fac1 	bl	80010e8 <MDIO_voidSetPinValue>
	MDIO_voidSetPinValue(GPIO_U8_PORTB, GPIO_U8_PIN13, GPIO_U8_LOW);  //right motor ccw
 8002b66:	2200      	movs	r2, #0
 8002b68:	210d      	movs	r1, #13
 8002b6a:	2001      	movs	r0, #1
 8002b6c:	f7fe fabc 	bl	80010e8 <MDIO_voidSetPinValue>
	MDIO_voidSetPinValue(GPIO_U8_PORTB, GPIO_U8_PIN14, GPIO_U8_HIGH); //left motor cw
 8002b70:	2201      	movs	r2, #1
 8002b72:	210e      	movs	r1, #14
 8002b74:	2001      	movs	r0, #1
 8002b76:	f7fe fab7 	bl	80010e8 <MDIO_voidSetPinValue>
	MDIO_voidSetPinValue(GPIO_U8_PORTB, GPIO_U8_PIN15, GPIO_U8_LOW); //left motor ccw
 8002b7a:	2200      	movs	r2, #0
 8002b7c:	210f      	movs	r1, #15
 8002b7e:	2001      	movs	r0, #1
 8002b80:	f7fe fab2 	bl	80010e8 <MDIO_voidSetPinValue>
	//PWM Pins (TIM3 Channel 1 and Channel 2)
	MPWM_voidChannel_1_SetValue(MOTORS_PWN_MAX_SPEED_VALUE); //right motor speed
 8002b84:	f44f 70fa 	mov.w	r0, #500	; 0x1f4
 8002b88:	f7fe fbbe 	bl	8001308 <MPWM_voidChannel_1_SetValue>
	MPWM_voidChannel_2_SetValue(MOTORS_PWN_HALF_SPEED_VALUE); //left motor speed
 8002b8c:	f44f 7096 	mov.w	r0, #300	; 0x12c
 8002b90:	f7fe fbca 	bl	8001328 <MPWM_voidChannel_2_SetValue>
}
 8002b94:	bf00      	nop
 8002b96:	bd80      	pop	{r7, pc}

08002b98 <WheelChair_RightBackward>:
void WheelChair_RightBackward()
{
 8002b98:	b580      	push	{r7, lr}
 8002b9a:	af00      	add	r7, sp, #0
	//MotorDrivers Pins
	MDIO_voidSetPinValue(GPIO_U8_PORTB, GPIO_U8_PIN12, GPIO_U8_LOW);  //right motor cw
 8002b9c:	2200      	movs	r2, #0
 8002b9e:	210c      	movs	r1, #12
 8002ba0:	2001      	movs	r0, #1
 8002ba2:	f7fe faa1 	bl	80010e8 <MDIO_voidSetPinValue>
	MDIO_voidSetPinValue(GPIO_U8_PORTB, GPIO_U8_PIN13, GPIO_U8_HIGH);  //right motor ccw
 8002ba6:	2201      	movs	r2, #1
 8002ba8:	210d      	movs	r1, #13
 8002baa:	2001      	movs	r0, #1
 8002bac:	f7fe fa9c 	bl	80010e8 <MDIO_voidSetPinValue>
	MDIO_voidSetPinValue(GPIO_U8_PORTB, GPIO_U8_PIN14, GPIO_U8_LOW); //left motor cw
 8002bb0:	2200      	movs	r2, #0
 8002bb2:	210e      	movs	r1, #14
 8002bb4:	2001      	movs	r0, #1
 8002bb6:	f7fe fa97 	bl	80010e8 <MDIO_voidSetPinValue>
	MDIO_voidSetPinValue(GPIO_U8_PORTB, GPIO_U8_PIN15, GPIO_U8_HIGH); //left motor ccw
 8002bba:	2201      	movs	r2, #1
 8002bbc:	210f      	movs	r1, #15
 8002bbe:	2001      	movs	r0, #1
 8002bc0:	f7fe fa92 	bl	80010e8 <MDIO_voidSetPinValue>
	//PWM Pins (TIM3 Channel 1 and Channel 2)
	MPWM_voidChannel_1_SetValue(MOTORS_PWN_HALF_SPEED_VALUE); //right motor speed
 8002bc4:	f44f 7096 	mov.w	r0, #300	; 0x12c
 8002bc8:	f7fe fb9e 	bl	8001308 <MPWM_voidChannel_1_SetValue>
	MPWM_voidChannel_2_SetValue(MOTORS_PWN_MAX_SPEED_VALUE); //left motor speed
 8002bcc:	f44f 70fa 	mov.w	r0, #500	; 0x1f4
 8002bd0:	f7fe fbaa 	bl	8001328 <MPWM_voidChannel_2_SetValue>
}
 8002bd4:	bf00      	nop
 8002bd6:	bd80      	pop	{r7, pc}

08002bd8 <WheelChair_LeftBackward>:
void WheelChair_LeftBackward()
{
 8002bd8:	b580      	push	{r7, lr}
 8002bda:	af00      	add	r7, sp, #0
	//MotorDrivers Pins
	MDIO_voidSetPinValue(GPIO_U8_PORTB, GPIO_U8_PIN12, GPIO_U8_LOW);  //right motor cw
 8002bdc:	2200      	movs	r2, #0
 8002bde:	210c      	movs	r1, #12
 8002be0:	2001      	movs	r0, #1
 8002be2:	f7fe fa81 	bl	80010e8 <MDIO_voidSetPinValue>
	MDIO_voidSetPinValue(GPIO_U8_PORTB, GPIO_U8_PIN13, GPIO_U8_HIGH);  //right motor ccw
 8002be6:	2201      	movs	r2, #1
 8002be8:	210d      	movs	r1, #13
 8002bea:	2001      	movs	r0, #1
 8002bec:	f7fe fa7c 	bl	80010e8 <MDIO_voidSetPinValue>
	MDIO_voidSetPinValue(GPIO_U8_PORTB, GPIO_U8_PIN14, GPIO_U8_LOW); //left motor cw
 8002bf0:	2200      	movs	r2, #0
 8002bf2:	210e      	movs	r1, #14
 8002bf4:	2001      	movs	r0, #1
 8002bf6:	f7fe fa77 	bl	80010e8 <MDIO_voidSetPinValue>
	MDIO_voidSetPinValue(GPIO_U8_PORTB, GPIO_U8_PIN15, GPIO_U8_HIGH); //left motor ccw
 8002bfa:	2201      	movs	r2, #1
 8002bfc:	210f      	movs	r1, #15
 8002bfe:	2001      	movs	r0, #1
 8002c00:	f7fe fa72 	bl	80010e8 <MDIO_voidSetPinValue>
	//PWM Pins (TIM3 Channel 1 and Channel 2)
	MPWM_voidChannel_1_SetValue(MOTORS_PWN_MAX_SPEED_VALUE); //right motor speed
 8002c04:	f44f 70fa 	mov.w	r0, #500	; 0x1f4
 8002c08:	f7fe fb7e 	bl	8001308 <MPWM_voidChannel_1_SetValue>
	MPWM_voidChannel_2_SetValue(MOTORS_PWN_HALF_SPEED_VALUE); //left motor speed
 8002c0c:	f44f 7096 	mov.w	r0, #300	; 0x12c
 8002c10:	f7fe fb8a 	bl	8001328 <MPWM_voidChannel_2_SetValue>
}
 8002c14:	bf00      	nop
 8002c16:	bd80      	pop	{r7, pc}

08002c18 <compare_strings>:
u8 compare_strings(u8 arr[],u8 arr1[])
{
 8002c18:	b480      	push	{r7}
 8002c1a:	b085      	sub	sp, #20
 8002c1c:	af00      	add	r7, sp, #0
 8002c1e:	6078      	str	r0, [r7, #4]
 8002c20:	6039      	str	r1, [r7, #0]
	u8 index=0;
 8002c22:	2300      	movs	r3, #0
 8002c24:	73fb      	strb	r3, [r7, #15]
	u8 rightflag=0;
 8002c26:	2300      	movs	r3, #0
 8002c28:	73bb      	strb	r3, [r7, #14]
	while(arr[index] != '\0')
 8002c2a:	e012      	b.n	8002c52 <compare_strings+0x3a>
	{
		if(arr[index]==arr1[index])
 8002c2c:	7bfb      	ldrb	r3, [r7, #15]
 8002c2e:	687a      	ldr	r2, [r7, #4]
 8002c30:	4413      	add	r3, r2
 8002c32:	781a      	ldrb	r2, [r3, #0]
 8002c34:	7bfb      	ldrb	r3, [r7, #15]
 8002c36:	6839      	ldr	r1, [r7, #0]
 8002c38:	440b      	add	r3, r1
 8002c3a:	781b      	ldrb	r3, [r3, #0]
 8002c3c:	429a      	cmp	r2, r3
 8002c3e:	d105      	bne.n	8002c4c <compare_strings+0x34>
		{
			rightflag=1;
 8002c40:	2301      	movs	r3, #1
 8002c42:	73bb      	strb	r3, [r7, #14]
			index++;
 8002c44:	7bfb      	ldrb	r3, [r7, #15]
 8002c46:	3301      	adds	r3, #1
 8002c48:	73fb      	strb	r3, [r7, #15]
 8002c4a:	e002      	b.n	8002c52 <compare_strings+0x3a>
		}
		else
		{
			rightflag=0;
 8002c4c:	2300      	movs	r3, #0
 8002c4e:	73bb      	strb	r3, [r7, #14]
			break;
 8002c50:	e005      	b.n	8002c5e <compare_strings+0x46>
	while(arr[index] != '\0')
 8002c52:	7bfb      	ldrb	r3, [r7, #15]
 8002c54:	687a      	ldr	r2, [r7, #4]
 8002c56:	4413      	add	r3, r2
 8002c58:	781b      	ldrb	r3, [r3, #0]
 8002c5a:	2b00      	cmp	r3, #0
 8002c5c:	d1e6      	bne.n	8002c2c <compare_strings+0x14>
		}
	}
	return rightflag;
 8002c5e:	7bbb      	ldrb	r3, [r7, #14]
}
 8002c60:	4618      	mov	r0, r3
 8002c62:	3714      	adds	r7, #20
 8002c64:	46bd      	mov	sp, r7
 8002c66:	bc80      	pop	{r7}
 8002c68:	4770      	bx	lr

08002c6a <NMI_Handler>:
/******************************************************************************/
/**
  * @brief This function handles Non maskable interrupt.
  */
void NMI_Handler(void)
{
 8002c6a:	b480      	push	{r7}
 8002c6c:	af00      	add	r7, sp, #0
  /* USER CODE BEGIN NonMaskableInt_IRQn 0 */

  /* USER CODE END NonMaskableInt_IRQn 0 */
  /* USER CODE BEGIN NonMaskableInt_IRQn 1 */
  while (1)
 8002c6e:	e7fe      	b.n	8002c6e <NMI_Handler+0x4>

08002c70 <HardFault_Handler>:

/**
  * @brief This function handles Hard fault interrupt.
  */
void HardFault_Handler(void)
{
 8002c70:	b480      	push	{r7}
 8002c72:	af00      	add	r7, sp, #0
  /* USER CODE BEGIN HardFault_IRQn 0 */

  /* USER CODE END HardFault_IRQn 0 */
  while (1)
 8002c74:	e7fe      	b.n	8002c74 <HardFault_Handler+0x4>

08002c76 <MemManage_Handler>:

/**
  * @brief This function handles Memory management fault.
  */
void MemManage_Handler(void)
{
 8002c76:	b480      	push	{r7}
 8002c78:	af00      	add	r7, sp, #0
  /* USER CODE BEGIN MemoryManagement_IRQn 0 */

  /* USER CODE END MemoryManagement_IRQn 0 */
  while (1)
 8002c7a:	e7fe      	b.n	8002c7a <MemManage_Handler+0x4>

08002c7c <BusFault_Handler>:

/**
  * @brief This function handles Prefetch fault, memory access fault.
  */
void BusFault_Handler(void)
{
 8002c7c:	b480      	push	{r7}
 8002c7e:	af00      	add	r7, sp, #0
  /* USER CODE BEGIN BusFault_IRQn 0 */

  /* USER CODE END BusFault_IRQn 0 */
  while (1)
 8002c80:	e7fe      	b.n	8002c80 <BusFault_Handler+0x4>

08002c82 <UsageFault_Handler>:

/**
  * @brief This function handles Undefined instruction or illegal state.
  */
void UsageFault_Handler(void)
{
 8002c82:	b480      	push	{r7}
 8002c84:	af00      	add	r7, sp, #0
  /* USER CODE BEGIN UsageFault_IRQn 0 */

  /* USER CODE END UsageFault_IRQn 0 */
  while (1)
 8002c86:	e7fe      	b.n	8002c86 <UsageFault_Handler+0x4>

08002c88 <SVC_Handler>:

/**
  * @brief This function handles System service call via SWI instruction.
  */
void SVC_Handler(void)
{
 8002c88:	b480      	push	{r7}
 8002c8a:	af00      	add	r7, sp, #0

  /* USER CODE END SVCall_IRQn 0 */
  /* USER CODE BEGIN SVCall_IRQn 1 */

  /* USER CODE END SVCall_IRQn 1 */
}
 8002c8c:	bf00      	nop
 8002c8e:	46bd      	mov	sp, r7
 8002c90:	bc80      	pop	{r7}
 8002c92:	4770      	bx	lr

08002c94 <DebugMon_Handler>:

/**
  * @brief This function handles Debug monitor.
  */
void DebugMon_Handler(void)
{
 8002c94:	b480      	push	{r7}
 8002c96:	af00      	add	r7, sp, #0

  /* USER CODE END DebugMonitor_IRQn 0 */
  /* USER CODE BEGIN DebugMonitor_IRQn 1 */

  /* USER CODE END DebugMonitor_IRQn 1 */
}
 8002c98:	bf00      	nop
 8002c9a:	46bd      	mov	sp, r7
 8002c9c:	bc80      	pop	{r7}
 8002c9e:	4770      	bx	lr

08002ca0 <PendSV_Handler>:

/**
  * @brief This function handles Pendable request for system service.
  */
void PendSV_Handler(void)
{
 8002ca0:	b480      	push	{r7}
 8002ca2:	af00      	add	r7, sp, #0

  /* USER CODE END PendSV_IRQn 0 */
  /* USER CODE BEGIN PendSV_IRQn 1 */

  /* USER CODE END PendSV_IRQn 1 */
}
 8002ca4:	bf00      	nop
 8002ca6:	46bd      	mov	sp, r7
 8002ca8:	bc80      	pop	{r7}
 8002caa:	4770      	bx	lr

08002cac <SystemInit>:
  * @note   This function should be used only after reset.
  * @param  None
  * @retval None
  */
void SystemInit (void)
{
 8002cac:	b480      	push	{r7}
 8002cae:	af00      	add	r7, sp, #0

  /* Configure the Vector Table location -------------------------------------*/
#if defined(USER_VECT_TAB_ADDRESS)
  SCB->VTOR = VECT_TAB_BASE_ADDRESS | VECT_TAB_OFFSET; /* Vector Table Relocation in Internal SRAM. */
#endif /* USER_VECT_TAB_ADDRESS */
}
 8002cb0:	bf00      	nop
 8002cb2:	46bd      	mov	sp, r7
 8002cb4:	bc80      	pop	{r7}
 8002cb6:	4770      	bx	lr

08002cb8 <Reset_Handler>:
  .weak Reset_Handler
  .type Reset_Handler, %function
Reset_Handler:

/* Copy the data segment initializers from flash to SRAM */
  ldr r0, =_sdata
 8002cb8:	480c      	ldr	r0, [pc, #48]	; (8002cec <LoopFillZerobss+0x12>)
  ldr r1, =_edata
 8002cba:	490d      	ldr	r1, [pc, #52]	; (8002cf0 <LoopFillZerobss+0x16>)
  ldr r2, =_sidata
 8002cbc:	4a0d      	ldr	r2, [pc, #52]	; (8002cf4 <LoopFillZerobss+0x1a>)
  movs r3, #0
 8002cbe:	2300      	movs	r3, #0
  b LoopCopyDataInit
 8002cc0:	e002      	b.n	8002cc8 <LoopCopyDataInit>

08002cc2 <CopyDataInit>:

CopyDataInit:
  ldr r4, [r2, r3]
 8002cc2:	58d4      	ldr	r4, [r2, r3]
  str r4, [r0, r3]
 8002cc4:	50c4      	str	r4, [r0, r3]
  adds r3, r3, #4
 8002cc6:	3304      	adds	r3, #4

08002cc8 <LoopCopyDataInit>:

LoopCopyDataInit:
  adds r4, r0, r3
 8002cc8:	18c4      	adds	r4, r0, r3
  cmp r4, r1
 8002cca:	428c      	cmp	r4, r1
  bcc CopyDataInit
 8002ccc:	d3f9      	bcc.n	8002cc2 <CopyDataInit>
  
/* Zero fill the bss segment. */
  ldr r2, =_sbss
 8002cce:	4a0a      	ldr	r2, [pc, #40]	; (8002cf8 <LoopFillZerobss+0x1e>)
  ldr r4, =_ebss
 8002cd0:	4c0a      	ldr	r4, [pc, #40]	; (8002cfc <LoopFillZerobss+0x22>)
  movs r3, #0
 8002cd2:	2300      	movs	r3, #0
  b LoopFillZerobss
 8002cd4:	e001      	b.n	8002cda <LoopFillZerobss>

08002cd6 <FillZerobss>:

FillZerobss:
  str  r3, [r2]
 8002cd6:	6013      	str	r3, [r2, #0]
  adds r2, r2, #4
 8002cd8:	3204      	adds	r2, #4

08002cda <LoopFillZerobss>:

LoopFillZerobss:
  cmp r2, r4
 8002cda:	42a2      	cmp	r2, r4
  bcc FillZerobss
 8002cdc:	d3fb      	bcc.n	8002cd6 <FillZerobss>

/* Call the clock system intitialization function.*/
    bl  SystemInit
 8002cde:	f7ff ffe5 	bl	8002cac <SystemInit>
/* Call static constructors */
    bl __libc_init_array
 8002ce2:	f000 f80f 	bl	8002d04 <__libc_init_array>
/* Call the application's entry point.*/
  bl main
 8002ce6:	f7ff fa11 	bl	800210c <main>
  bx lr
 8002cea:	4770      	bx	lr
  ldr r0, =_sdata
 8002cec:	20000000 	.word	0x20000000
  ldr r1, =_edata
 8002cf0:	2000001c 	.word	0x2000001c
  ldr r2, =_sidata
 8002cf4:	08002eb8 	.word	0x08002eb8
  ldr r2, =_sbss
 8002cf8:	2000001c 	.word	0x2000001c
  ldr r4, =_ebss
 8002cfc:	200000e4 	.word	0x200000e4

08002d00 <ADC1_2_IRQHandler>:
 * @retval : None
*/
    .section .text.Default_Handler,"ax",%progbits
Default_Handler:
Infinite_Loop:
  b Infinite_Loop
 8002d00:	e7fe      	b.n	8002d00 <ADC1_2_IRQHandler>
	...

08002d04 <__libc_init_array>:
 8002d04:	b570      	push	{r4, r5, r6, lr}
 8002d06:	2600      	movs	r6, #0
 8002d08:	4d0c      	ldr	r5, [pc, #48]	; (8002d3c <__libc_init_array+0x38>)
 8002d0a:	4c0d      	ldr	r4, [pc, #52]	; (8002d40 <__libc_init_array+0x3c>)
 8002d0c:	1b64      	subs	r4, r4, r5
 8002d0e:	10a4      	asrs	r4, r4, #2
 8002d10:	42a6      	cmp	r6, r4
 8002d12:	d109      	bne.n	8002d28 <__libc_init_array+0x24>
 8002d14:	f000 f81a 	bl	8002d4c <_init>
 8002d18:	2600      	movs	r6, #0
 8002d1a:	4d0a      	ldr	r5, [pc, #40]	; (8002d44 <__libc_init_array+0x40>)
 8002d1c:	4c0a      	ldr	r4, [pc, #40]	; (8002d48 <__libc_init_array+0x44>)
 8002d1e:	1b64      	subs	r4, r4, r5
 8002d20:	10a4      	asrs	r4, r4, #2
 8002d22:	42a6      	cmp	r6, r4
 8002d24:	d105      	bne.n	8002d32 <__libc_init_array+0x2e>
 8002d26:	bd70      	pop	{r4, r5, r6, pc}
 8002d28:	f855 3b04 	ldr.w	r3, [r5], #4
 8002d2c:	4798      	blx	r3
 8002d2e:	3601      	adds	r6, #1
 8002d30:	e7ee      	b.n	8002d10 <__libc_init_array+0xc>
 8002d32:	f855 3b04 	ldr.w	r3, [r5], #4
 8002d36:	4798      	blx	r3
 8002d38:	3601      	adds	r6, #1
 8002d3a:	e7f2      	b.n	8002d22 <__libc_init_array+0x1e>
 8002d3c:	08002eb0 	.word	0x08002eb0
 8002d40:	08002eb0 	.word	0x08002eb0
 8002d44:	08002eb0 	.word	0x08002eb0
 8002d48:	08002eb4 	.word	0x08002eb4

08002d4c <_init>:
 8002d4c:	b5f8      	push	{r3, r4, r5, r6, r7, lr}
 8002d4e:	bf00      	nop
 8002d50:	bcf8      	pop	{r3, r4, r5, r6, r7}
 8002d52:	bc08      	pop	{r3}
 8002d54:	469e      	mov	lr, r3
 8002d56:	4770      	bx	lr

08002d58 <_fini>:
 8002d58:	b5f8      	push	{r3, r4, r5, r6, r7, lr}
 8002d5a:	bf00      	nop
 8002d5c:	bcf8      	pop	{r3, r4, r5, r6, r7}
 8002d5e:	bc08      	pop	{r3}
 8002d60:	469e      	mov	lr, r3
 8002d62:	4770      	bx	lr
